(lp0
(imodels.rectangle_obstacle
RectangleObstacle
p1
(dp2
S'geometry'
p3
(imodels.polygon
Polygon
p4
(dp5
S'vertexes'
p6
(lp7
(lp8
F0.3386724973046207
aF0.3780128266375544
aa(lp9
F0.3386724973046207
aF-0.3780128266375544
aa(lp10
F-0.3386724973046207
aF-0.3780128266375544
aa(lp11
F-0.3386724973046207
aF0.3780128266375544
aasS'bounding_circle'
p12
((lp13
F0.0
aF0.0
aF0.5075359667383801
tp14
sbsS'width'
p15
F0.6773449946092414
sS'pose'
p16
(imodels.pose
Pose
p17
(dp18
S'y'
p19
F-0.6883749538935091
sS'x'
p20
F-4.084186790703031
sS'theta'
p21
F-0.052868085852947555
sbsS'global_geometry'
p22
(imodels.polygon
Polygon
p23
(dp24
g6
(lp25
(lp26
F-3.7260119776596454
aF-0.32878691066292864
aa(lp27
F-3.765962989990533
aF-1.0837562511157661
aa(lp28
F-4.442361603746416
aF-1.0479629971240896
aa(lp29
F-4.402410591415529
aF-0.2929936566712522
aasg12
((lp30
F-4.084186790703031
aF-0.6883749538935091
aF0.5075359667383802
tp31
sbsS'height'
p32
F0.7560256532751088
sba(imodels.rectangle_obstacle
RectangleObstacle
p33
(dp34
g3
(imodels.polygon
Polygon
p35
(dp36
g6
(lp37
(lp38
F1.0296761270498724
aF0.23978363491213195
aa(lp39
F1.0296761270498724
aF-0.23978363491213195
aa(lp40
F-1.0296761270498724
aF-0.23978363491213195
aa(lp41
F-1.0296761270498724
aF0.23978363491213195
aasg12
((lp42
F0.0
aF0.0
aF1.0572270892235498
tp43
sbsg15
F2.059352254099745
sg16
(imodels.pose
Pose
p44
(dp45
g19
F-2.371856423342964
sg20
F-2.199523184457462
sg21
F2.746730454412475
sbsg22
(imodels.polygon
Polygon
p46
(dp47
g6
(lp48
(lp49
F-3.24220551100034
aF-2.197091769870842
aa(lp50
F-3.057725096249909
aF-1.7544274016863137
aa(lp51
F-1.156840857914584
aF-2.546621076815086
aa(lp52
F-1.3413212726650146
aF-2.9892854449996142
aasg12
((lp53
F-2.199523184457462
aF-2.371856423342964
aF1.0572270892235498
tp54
sbsg32
F0.4795672698242639
sba(imodels.rectangle_obstacle
RectangleObstacle
p55
(dp56
g3
(imodels.polygon
Polygon
p57
(dp58
g6
(lp59
(lp60
F0.7274198750503131
aF0.06860090527012135
aa(lp61
F0.7274198750503131
aF-0.06860090527012135
aa(lp62
F-0.7274198750503131
aF-0.06860090527012135
aa(lp63
F-0.7274198750503131
aF0.06860090527012135
aasg12
((lp64
F0.0
aF0.0
aF0.7306474928596508
tp65
sbsg15
F1.4548397501006263
sg16
(imodels.pose
Pose
p66
(dp67
g19
F-3.615626462601283
sg20
F-1.0604834083975483
sg21
F-0.8275450574119834
sbsg22
(imodels.polygon
Polygon
p68
(dp69
g6
(lp70
(lp71
F-0.5177401183332989
aF-4.104784392019101
aa(lp72
F-0.618758020255653
aF-4.197626840859738
aa(lp73
F-1.6032266984617976
aF-3.1264685331834645
aa(lp74
F-1.5022087965394437
aF-3.0336260843428273
aasg12
((lp75
F-1.0604834083975483
aF-3.615626462601283
aF0.7306474928596508
tp76
sbsg32
F0.1372018105402427
sba(imodels.rectangle_obstacle
RectangleObstacle
p77
(dp78
g3
(imodels.polygon
Polygon
p79
(dp80
g6
(lp81
(lp82
F0.5391559713757473
aF0.2761344740430156
aa(lp83
F0.5391559713757473
aF-0.2761344740430156
aa(lp84
F-0.5391559713757473
aF-0.2761344740430156
aa(lp85
F-0.5391559713757473
aF0.2761344740430156
aasg12
((lp86
F0.0
aF0.0
aF0.605755238710437
tp87
sbsg15
F1.0783119427514947
sg16
(imodels.pose
Pose
p88
(dp89
g19
F-0.9163710087729317
sg20
F0.13696118828455578
sg21
F-0.9364593750256764
sbsg22
(imodels.polygon
Polygon
p90
(dp91
g6
(lp92
(lp93
F0.6789051205130661
aF-1.1869928547976722
aa(lp94
F0.23407190901258856
aF-1.5142915027726112
aa(lp95
F-0.40498274394395445
aF-0.645749162748191
aa(lp96
F0.039850467556522995
aF-0.31845051477325226
aasg12
((lp97
F0.13696118828455578
aF-0.9163710087729317
aF0.6057552387104372
tp98
sbsg32
F0.5522689480860312
sba(imodels.rectangle_obstacle
RectangleObstacle
p99
(dp100
g3
(imodels.polygon
Polygon
p101
(dp102
g6
(lp103
(lp104
F0.4727327553325422
aF0.5319286091685029
aa(lp105
F0.4727327553325422
aF-0.5319286091685029
aa(lp106
F-0.4727327553325422
aF-0.5319286091685029
aa(lp107
F-0.4727327553325422
aF0.5319286091685029
aasg12
((lp108
F0.0
aF0.0
aF0.7116349508113238
tp109
sbsg15
F0.9454655106650844
sg16
(imodels.pose
Pose
p110
(dp111
g19
F2.657376064769833
sg20
F2.7018002614828074
sg21
F0.31119445078411667
sbsg22
(imodels.polygon
Polygon
p112
(dp113
g6
(lp114
(lp115
F2.9889525822880736
aF3.3085041995270283
aa(lp116
F3.3147013370449123
aF2.295745625244825
aa(lp117
F2.414647940677541
aF2.0062479300126372
aa(lp118
F2.0888991859207025
aF3.0190065042948406
aasg12
((lp119
F2.7018002614828074
aF2.6573760647698332
aF0.7116349508113242
tp120
sbsg32
F1.0638572183370059
sba(imodels.rectangle_obstacle
RectangleObstacle
p121
(dp122
g3
(imodels.polygon
Polygon
p123
(dp124
g6
(lp125
(lp126
F0.40604797083502037
aF0.4860101803969259
aa(lp127
F0.40604797083502037
aF-0.4860101803969259
aa(lp128
F-0.40604797083502037
aF-0.4860101803969259
aa(lp129
F-0.40604797083502037
aF0.4860101803969259
aasg12
((lp130
F0.0
aF0.0
aF0.6333094425860789
tp131
sbsg15
F0.8120959416700407
sg16
(imodels.pose
Pose
p132
(dp133
g19
F-3.1525009462905382
sg20
F-2.119794153568874
sg21
F-2.0123727911585987
sbsg22
(imodels.polygon
Polygon
p134
(dp135
g6
(lp136
(lp137
F-1.853933316224122
aF-3.727304273729618
aa(lp138
F-2.732716571135853
aF-3.311896555115058
aa(lp139
F-2.3856549909136255
aF-2.5776976188514586
aa(lp140
F-1.5068717360018944
aF-2.9931053374660186
aasg12
((lp141
F-2.119794153568874
aF-3.1525009462905382
aF0.6333094425860791
tp142
sbsg32
F0.9720203607938518
sba(imodels.rectangle_obstacle
RectangleObstacle
p143
(dp144
g3
(imodels.polygon
Polygon
p145
(dp146
g6
(lp147
(lp148
F0.8661101640291307
aF0.29071693688722455
aa(lp149
F0.8661101640291307
aF-0.29071693688722455
aa(lp150
F-0.8661101640291307
aF-0.29071693688722455
aa(lp151
F-0.8661101640291307
aF0.29071693688722455
aasg12
((lp152
F0.0
aF0.0
aF0.9135990113981396
tp153
sbsg15
F1.7322203280582613
sg16
(imodels.pose
Pose
p154
(dp155
g19
F-3.685898882749627
sg20
F1.060996186603702
sg21
F0.10515561826437292
sbsg22
(imodels.polygon
Polygon
p156
(dp157
g6
(lp158
(lp159
F1.891807956222931
aF-3.305879202877882
aa(lp160
F1.9528363770640356
aF-3.884101375941146
aa(lp161
F0.23018441698447323
aF-4.065918562621372
aa(lp162
F0.16915599614336851
aF-3.487696389558108
aasg12
((lp163
F1.060996186603702
aF-3.685898882749627
aF0.9135990113981398
tp164
sbsg32
F0.5814338737744491
sba(imodels.rectangle_obstacle
RectangleObstacle
p165
(dp166
g3
(imodels.polygon
Polygon
p167
(dp168
g6
(lp169
(lp170
F0.30072428201148904
aF0.45134878025090036
aa(lp171
F0.30072428201148904
aF-0.45134878025090036
aa(lp172
F-0.30072428201148904
aF-0.45134878025090036
aa(lp173
F-0.30072428201148904
aF0.45134878025090036
aasg12
((lp174
F0.0
aF0.0
aF0.5423567232231026
tp175
sbsg15
F0.6014485640229781
sg16
(imodels.pose
Pose
p176
(dp177
g19
F2.989848584823392
sg20
F-2.1783939995232653
sg21
F0.395042505551356
sbsg22
(imodels.polygon
Polygon
p178
(dp179
g6
(lp180
(lp181
F-2.0745318534721027
aF3.5221675398146157
aa(lp182
F-1.7271310254255268
aF2.6889955585235645
aa(lp183
F-2.282256145574428
aF2.4575296298321687
aa(lp184
F-2.629656973621004
aF3.29070161112322
aasg12
((lp185
F-2.1783939995232657
aF2.989848584823392
aF0.5423567232231029
tp186
sbsg32
F0.9026975605018007
sba(imodels.rectangle_obstacle
RectangleObstacle
p187
(dp188
g3
(imodels.polygon
Polygon
p189
(dp190
g6
(lp191
(lp192
F1.038089479712075
aF0.2360568996023666
aa(lp193
F1.038089479712075
aF-0.2360568996023666
aa(lp194
F-1.038089479712075
aF-0.2360568996023666
aa(lp195
F-1.038089479712075
aF0.2360568996023666
aasg12
((lp196
F0.0
aF0.0
aF1.0645903567752097
tp197
sbsg15
F2.07617895942415
sg16
(imodels.pose
Pose
p198
(dp199
g19
F0.5929453052432606
sg20
F0.9141072081418125
sg21
F2.7540453091014436
sbsg22
(imodels.polygon
Polygon
p200
(dp201
g6
(lp202
(lp203
F-0.13620659431284254
aF0.766708201489877
aa(lp204
F0.042214081698419004
aF1.2038094503684538
aa(lp205
F1.9644210105964675
aF0.4191824089966443
aa(lp206
F1.7860003345852058
aF-0.017918839881932547
aasg12
((lp207
F0.9141072081418125
aF0.5929453052432605
aF1.0645903567752097
tp208
sbsg32
F0.4721137992047332
sba(imodels.rectangle_obstacle
RectangleObstacle
p209
(dp210
g3
(imodels.polygon
Polygon
p211
(dp212
g6
(lp213
(lp214
F0.08690051964973318
aF0.8902343612964659
aa(lp215
F0.08690051964973318
aF-0.8902343612964659
aa(lp216
F-0.08690051964973318
aF-0.8902343612964659
aa(lp217
F-0.08690051964973318
aF0.8902343612964659
aasg12
((lp218
F0.0
aF0.0
aF0.8944657166981417
tp219
sbsg15
F0.17380103929946636
sg16
(imodels.pose
Pose
p220
(dp221
g19
F0.6040000823205034
sg20
F-2.4960047231388165
sg21
F-1.034523531279056
sbsg22
(imodels.polygon
Polygon
p222
(dp223
g6
(lp224
(lp225
F-1.6863417767567963
aF0.984151146509868
aa(lp226
F-3.2168665360550657
aF0.07444634092363711
aa(lp227
F-3.3056676695208367
aF0.22384901813113878
aa(lp228
F-1.7751429102225673
aF1.1335538237173697
aasg12
((lp229
F-2.4960047231388165
aF0.6040000823205034
aF0.8944657166981419
tp230
sbsg32
F1.7804687225929319
sba(imodels.rectangle_obstacle
RectangleObstacle
p231
(dp232
g3
(imodels.polygon
Polygon
p233
(dp234
g6
(lp235
(lp236
F0.07131652048395583
aF1.1254819151510151
aa(lp237
F0.07131652048395583
aF-1.1254819151510151
aa(lp238
F-0.07131652048395583
aF-1.1254819151510151
aa(lp239
F-0.07131652048395583
aF1.1254819151510151
aasg12
((lp240
F0.0
aF0.0
aF1.1277391486624624
tp241
sbsg15
F0.14263304096791166
sg16
(imodels.pose
Pose
p242
(dp243
g19
F2.21524320763628
sg20
F3.2154662925174753
sg21
F-0.9245556719381338
sbsg22
(imodels.polygon
Polygon
p244
(dp245
g6
(lp246
(lp247
F4.156944513914714
aF2.8360606897198855
aa(lp248
F2.3598801739957818
aF1.4805541705471734
aa(lp249
F2.273988071120237
aF1.5944257255526741
aa(lp250
F4.071052411039169
aF2.949932244725386
aasg12
((lp251
F3.2154662925174753
aF2.21524320763628
aF1.1277391486624626
tp252
sbsg32
F2.2509638303020303
sba(imodels.rectangle_obstacle
RectangleObstacle
p253
(dp254
g3
(imodels.polygon
Polygon
p255
(dp256
g6
(lp257
(lp258
F0.875166385548116
aF0.4035768942470831
aa(lp259
F0.875166385548116
aF-0.4035768942470831
aa(lp260
F-0.875166385548116
aF-0.4035768942470831
aa(lp261
F-0.875166385548116
aF0.4035768942470831
aasg12
((lp262
F0.0
aF0.0
aF0.963737781745364
tp263
sbsg15
F1.750332771096232
sg16
(imodels.pose
Pose
p264
(dp265
g19
F-3.3658052094105466
sg20
F-1.8767366243072283
sg21
F1.6417679080510794
sbsg22
(imodels.polygon
Polygon
p266
(dp267
g6
(lp268
(lp269
F-2.341357356457145
aF-2.5214604414277337
aa(lp270
F-1.5362355176738802
aF-2.464223539041777
aa(lp271
F-1.4121158921573116
aF-4.2101499773933595
aa(lp272
F-2.2172377309405764
aF-4.267386879779316
aasg12
((lp273
F-1.8767366243072283
aF-3.3658052094105466
aF0.9637377817453642
tp274
sbsg32
F0.8071537884941662
sba(imodels.rectangle_obstacle
RectangleObstacle
p275
(dp276
g3
(imodels.polygon
Polygon
p277
(dp278
g6
(lp279
(lp280
F1.089737686359168
aF0.1266930463855449
aa(lp281
F1.089737686359168
aF-0.1266930463855449
aa(lp282
F-1.089737686359168
aF-0.1266930463855449
aa(lp283
F-1.089737686359168
aF0.1266930463855449
aasg12
((lp284
F0.0
aF0.0
aF1.0970776422267852
tp285
sbsg15
F2.179475372718336
sg16
(imodels.pose
Pose
p286
(dp287
g19
F3.2162892976663016
sg20
F1.0395124197194345
sg21
F-0.8835061207970609
sbsg22
(imodels.polygon
Polygon
p288
(dp289
g6
(lp290
(lp291
F1.8288206487947036
aF2.45433662683435
aa(lp292
F1.6329612907387117
aF2.2935771049649003
aa(lp293
F0.2502041906441653
aF3.9782419684982533
aa(lp294
F0.4460635487001575
aF4.139001490367702
aasg12
((lp295
F1.0395124197194345
aF3.2162892976663016
aF1.0970776422267854
tp296
sbsg32
F0.2533860927710898
sba(imodels.rectangle_obstacle
RectangleObstacle
p297
(dp298
g3
(imodels.polygon
Polygon
p299
(dp300
g6
(lp301
(lp302
F0.28754006538988797
aF0.9079288581119497
aa(lp303
F0.28754006538988797
aF-0.9079288581119497
aa(lp304
F-0.28754006538988797
aF-0.9079288581119497
aa(lp305
F-0.28754006538988797
aF0.9079288581119497
aasg12
((lp306
F0.0
aF0.0
aF0.9523728789696239
tp307
sbsg15
F0.5750801307797759
sg16
(imodels.pose
Pose
p308
(dp309
g19
F3.089681258931234
sg20
F2.6356385791164816
sg21
F2.9246162081051024
sbsg22
(imodels.polygon
Polygon
p310
(dp311
g6
(lp312
(lp313
F2.159383454181296
aF2.2649418112449595
aa(lp314
F2.5502975824982346
aF4.03822277878848
aa(lp315
F3.111893704051667
aF3.9144207066175083
aa(lp316
F2.7209795757347286
aF2.1411397390739877
aasg12
((lp317
F2.6356385791164816
aF3.0896812589312344
aF0.9523728789696245
tp318
sbsg32
F1.8158577162238994
sba(imodels.rectangle_obstacle
RectangleObstacle
p319
(dp320
g3
(imodels.polygon
Polygon
p321
(dp322
g6
(lp323
(lp324
F1.016943726482588
aF0.07781707731829815
aa(lp325
F1.016943726482588
aF-0.07781707731829815
aa(lp326
F-1.016943726482588
aF-0.07781707731829815
aa(lp327
F-1.016943726482588
aF0.07781707731829815
aasg12
((lp328
F0.0
aF0.0
aF1.0199166830455588
tp329
sbsg15
F2.033887452965176
sg16
(imodels.pose
Pose
p330
(dp331
g19
F-5.9876656746836
sg20
F-0.10131963940327861
sg21
F1.4195311475194519
sbsg22
(imodels.polygon
Polygon
p332
(dp333
g6
(lp334
(lp335
F-0.025005922518548482
aF-4.970608027856297
aa(lp336
F0.12885108004009144
aF-4.994060380683223
aa(lp337
F-0.17763335628800875
aF-7.0047233215109035
aa(lp338
F-0.3314903588466487
aF-6.981270968683978
aasg12
((lp339
F-0.10131963940327862
aF-5.987665674683601
aF1.0199166830455597
tp340
sbsg32
F0.1556341546365963
sba(imodels.rectangle_obstacle
RectangleObstacle
p341
(dp342
g3
(imodels.polygon
Polygon
p343
(dp344
g6
(lp345
(lp346
F0.2488100829976641
aF1.0055447687540866
aa(lp347
F0.2488100829976641
aF-1.0055447687540866
aa(lp348
F-0.2488100829976641
aF-1.0055447687540866
aa(lp349
F-0.2488100829976641
aF1.0055447687540866
aasg12
((lp350
F0.0
aF0.0
aF1.0358700398071246
tp351
sbsg15
F0.4976201659953282
sg16
(imodels.pose
Pose
p352
(dp353
g19
F-1.7760504441230063
sg20
F2.1080570561050487
sg21
F0.5163302454133203
sbsg22
(imodels.polygon
Polygon
p354
(dp355
g6
(lp356
(lp357
F1.8280019261699438
aF-0.7787561728233835
aa(lp358
F2.820860975032937
aF-2.5276735628008833
aa(lp359
F2.3881121860401535
aF-2.773344715422629
aa(lp360
F1.3952531371771602
aF-1.0244273254451293
aasg12
((lp361
F2.1080570561050487
aF-1.7760504441230065
aF1.035870039807125
tp362
sbsg32
F2.011089537508173
sba(imodels.rectangle_obstacle
RectangleObstacle
p363
(dp364
g3
(imodels.polygon
Polygon
p365
(dp366
g6
(lp367
(lp368
F0.4258224421688941
aF0.6057946046216048
aa(lp369
F0.4258224421688941
aF-0.6057946046216048
aa(lp370
F-0.4258224421688941
aF-0.6057946046216048
aa(lp371
F-0.4258224421688941
aF0.6057946046216048
aasg12
((lp372
F0.0
aF0.0
aF0.7404808270599096
tp373
sbsg15
F0.8516448843377882
sg16
(imodels.pose
Pose
p374
(dp375
g19
F0.8140234314748939
sg20
F0.5686191528680316
sg21
F1.6822540724316788
sbsg22
(imodels.polygon
Polygon
p376
(dp377
g6
(lp378
(lp379
F-0.0807795075421407
aF1.1698228624761273
aa(lp380
F1.1232918065114146
aF1.3045844394479444
aa(lp381
F1.2180178132782038
aF0.45822400047366046
aa(lp382
F0.013946499224648523
aF0.32346242350184323
aasg12
((lp383
F0.5686191528680316
aF0.8140234314748939
aF0.7404808270599097
tp384
sbsg32
F1.2115892092432097
sba(imodels.rectangle_obstacle
RectangleObstacle
p385
(dp386
g3
(imodels.polygon
Polygon
p387
(dp388
g6
(lp389
(lp390
F0.6285639515646231
aF0.16227397282960937
aa(lp391
F0.6285639515646231
aF-0.16227397282960937
aa(lp392
F-0.6285639515646231
aF-0.16227397282960937
aa(lp393
F-0.6285639515646231
aF0.16227397282960937
aasg12
((lp394
F0.0
aF0.0
aF0.6491729226211138
tp395
sbsg15
F1.2571279031292462
sg16
(imodels.pose
Pose
p396
(dp397
g19
F-0.20051660215555828
sg20
F-5.742947635390886
sg21
F1.8643534738751963
sbsg22
(imodels.polygon
Polygon
p398
(dp399
g6
(lp400
(lp401
F-6.080160282737452
aF0.35420234824541613
aa(lp402
F-5.76949629013553
aF0.4481132247840362
aa(lp403
F-5.405734988044319
aF-0.7552355525565326
aa(lp404
F-5.716398980646241
aF-0.8491464290951527
aasg12
((lp405
F-5.742947635390886
aF-0.20051660215555825
aF0.6491729226211138
tp406
sbsg32
F0.32454794565921874
sba(imodels.rectangle_obstacle
RectangleObstacle
p407
(dp408
g3
(imodels.polygon
Polygon
p409
(dp410
g6
(lp411
(lp412
F1.0867102283628742
aF0.16310504171515927
aa(lp413
F1.0867102283628742
aF-0.16310504171515927
aa(lp414
F-1.0867102283628742
aF-0.16310504171515927
aa(lp415
F-1.0867102283628742
aF0.16310504171515927
aasg12
((lp416
F0.0
aF0.0
aF1.0988823299431991
tp417
sbsg15
F2.1734204567257485
sg16
(imodels.pose
Pose
p418
(dp419
g19
F-0.5751254290677851
sg20
F2.5143262299431823
sg21
F0.6040172906793537
sbsg22
(imodels.polygon
Polygon
p420
(dp421
g6
(lp422
(lp423
F3.3161185503725292
aF0.17632080983551623
aa(lp424
F3.501390715933706
aF-0.0921698663524797
aa(lp425
F1.7125339095138354
aF-1.3265716679710864
aa(lp426
F1.5272617439526588
aF-1.0580809917830905
aasg12
((lp427
F2.5143262299431823
aF-0.5751254290677851
aF1.0988823299431991
tp428
sbsg32
F0.32621008343031854
sba(imodels.rectangle_obstacle
RectangleObstacle
p429
(dp430
g3
(imodels.polygon
Polygon
p431
(dp432
g6
(lp433
(lp434
F0.8958686403209136
aF0.18255800302466574
aa(lp435
F0.8958686403209136
aF-0.18255800302466574
aa(lp436
F-0.8958686403209136
aF-0.18255800302466574
aa(lp437
F-0.8958686403209136
aF0.18255800302466574
aasg12
((lp438
F0.0
aF0.0
aF0.914280069332585
tp439
sbsg15
F1.7917372806418272
sg16
(imodels.pose
Pose
p440
(dp441
g19
F1.6488261088359155
sg20
F4.430764823629504
sg21
F-0.7543099134441431
sbsg22
(imodels.polygon
Polygon
p442
(dp443
g6
(lp444
(lp445
F5.208637122127753
aF1.1683859643768495
aa(lp446
F4.958610816497073
aF0.9023097640768425
aa(lp447
F3.6528925251312554
aF2.1292662532949818
aa(lp448
F3.9029188307619354
aF2.3953424535949885
aasg12
((lp449
F4.430764823629504
aF1.6488261088359155
aF0.9142800693325852
tp450
sbsg32
F0.3651160060493315
sba(imodels.rectangle_obstacle
RectangleObstacle
p451
(dp452
g3
(imodels.polygon
Polygon
p453
(dp454
g6
(lp455
(lp456
F0.3619076601800011
aF0.11069749541197486
aa(lp457
F0.3619076601800011
aF-0.11069749541197486
aa(lp458
F-0.3619076601800011
aF-0.11069749541197486
aa(lp459
F-0.3619076601800011
aF0.11069749541197486
aasg12
((lp460
F0.0
aF0.0
aF0.3784588352614421
tp461
sbsg15
F0.7238153203600022
sg16
(imodels.pose
Pose
p462
(dp463
g19
F0.322537889585334
sg20
F-2.790331159033832
sg21
F0.6166396984865612
sbsg22
(imodels.polygon
Polygon
p464
(dp465
g6
(lp466
(lp467
F-2.5590933980109423
aF0.6221379360882815
aa(lp468
F-2.4310613371733387
aF0.4415180773805164
aa(lp469
F-3.0215689200567217
aF0.022937843082386555
aa(lp470
F-3.1496009808943253
aF0.20355770179015162
aasg12
((lp471
F-2.790331159033832
aF0.322537889585334
aF0.3784588352614422
tp472
sbsg32
F0.22139499082394973
sba(imodels.rectangle_obstacle
RectangleObstacle
p473
(dp474
g3
(imodels.polygon
Polygon
p475
(dp476
g6
(lp477
(lp478
F0.8652080005094066
aF0.1643464340265147
aa(lp479
F0.8652080005094066
aF-0.1643464340265147
aa(lp480
F-0.8652080005094066
aF-0.1643464340265147
aa(lp481
F-0.8652080005094066
aF0.1643464340265147
aasg12
((lp482
F0.0
aF0.0
aF0.8806785080395211
tp483
sbsg15
F1.7304160010188132
sg16
(imodels.pose
Pose
p484
(dp485
g19
F4.057951646905161
sg20
F-2.457715441555621
sg21
F-2.2642936514952448
sbsg22
(imodels.polygon
Polygon
p486
(dp487
g6
(lp488
(lp489
F-2.884397961339291
aF3.2875383410531818
aa(lp490
F-3.1371677485709384
aF3.4976488742774685
aa(lp491
F-2.0310329217719505
aF4.8283649527571395
aa(lp492
F-1.7782631345403033
aF4.618254419532853
aasg12
((lp493
F-2.457715441555621
aF4.057951646905161
aF0.8806785080395213
tp494
sbsg32
F0.3286928680530294
sba(imodels.rectangle_obstacle
RectangleObstacle
p495
(dp496
g3
(imodels.polygon
Polygon
p497
(dp498
g6
(lp499
(lp500
F0.29968508333603455
aF0.16746504382624158
aa(lp501
F0.29968508333603455
aF-0.16746504382624158
aa(lp502
F-0.29968508333603455
aF-0.16746504382624158
aa(lp503
F-0.29968508333603455
aF0.16746504382624158
aasg12
((lp504
F0.0
aF0.0
aF0.34330116527307475
tp505
sbsg15
F0.5993701666720691
sg16
(imodels.pose
Pose
p506
(dp507
g19
F-0.006571944015912655
sg20
F3.3098479275919064
sg21
F2.415806540771814
sbsg22
(imodels.polygon
Polygon
p508
(dp509
g6
(lp510
(lp511
F2.974539601940586
aF0.06707598078009891
aa(lp512
F3.196840619764642
aF0.3175962815329294
aa(lp513
F3.645156253243227
aF-0.08021986881192422
aa(lp514
F3.4228552354191706
aF-0.3307401695647547
aasg12
((lp515
F3.3098479275919064
aF-0.006571944015912656
aF0.34330116527307475
tp516
sbsg32
F0.33493008765248317
sba(imodels.rectangle_obstacle
RectangleObstacle
p517
(dp518
g3
(imodels.polygon
Polygon
p519
(dp520
g6
(lp521
(lp522
F0.9316535711401285
aF0.25153699022978926
aa(lp523
F0.9316535711401285
aF-0.25153699022978926
aa(lp524
F-0.9316535711401285
aF-0.25153699022978926
aa(lp525
F-0.9316535711401285
aF0.25153699022978926
aasg12
((lp526
F0.0
aF0.0
aF0.9650125564323065
tp527
sbsg15
F1.863307142280257
sg16
(imodels.pose
Pose
p528
(dp529
g19
F0.6440744054543045
sg20
F1.4361054473204977
sg21
F-0.243239220411549
sbsg22
(imodels.polygon
Polygon
p530
(dp531
g6
(lp532
(lp533
F2.400915966155824
aF0.6638202104954634
aa(lp534
F2.279751729039758
aF0.17555526452911002
aa(lp535
F0.4712949284851712
aF0.6243286004131456
aa(lp536
F0.5924591656012376
aF1.112593546379499
aasg12
((lp537
F1.4361054473204977
aF0.6440744054543045
aF0.9650125564323067
tp538
sbsg32
F0.5030739804595785
sba(imodels.rectangle_obstacle
RectangleObstacle
p539
(dp540
g3
(imodels.polygon
Polygon
p541
(dp542
g6
(lp543
(lp544
F0.5967867791054093
aF0.23978583279683952
aa(lp545
F0.5967867791054093
aF-0.23978583279683952
aa(lp546
F-0.5967867791054093
aF-0.23978583279683952
aa(lp547
F-0.5967867791054093
aF0.23978583279683952
aasg12
((lp548
F0.0
aF0.0
aF0.6431576053543039
tp549
sbsg15
F1.1935735582108187
sg16
(imodels.pose
Pose
p550
(dp551
g19
F0.16658392243869824
sg20
F1.8581048230015353
sg21
F-1.1839682928245263
sbsg22
(imodels.polygon
Polygon
p552
(dp553
g6
(lp554
(lp555
F2.305312404499353
aF-0.2956466308309392
aa(lp556
F1.8611761215935994
aF-0.47656634962067124
aa(lp557
F1.4108972415037175
aF0.6288144757083357
aa(lp558
F1.8550335244094713
aF0.8097341944980677
aasg12
((lp559
F1.8581048230015353
aF0.16658392243869824
aF0.643157605354304
tp560
sbsg32
F0.47957166559367903
sba(imodels.rectangle_obstacle
RectangleObstacle
p561
(dp562
g3
(imodels.polygon
Polygon
p563
(dp564
g6
(lp565
(lp566
F1.127392287505091
aF0.11098277146201863
aa(lp567
F1.127392287505091
aF-0.11098277146201863
aa(lp568
F-1.127392287505091
aF-0.11098277146201863
aa(lp569
F-1.127392287505091
aF0.11098277146201863
aasg12
((lp570
F0.0
aF0.0
aF1.1328418007327203
tp571
sbsg15
F2.254784575010182
sg16
(imodels.pose
Pose
p572
(dp573
g19
F-0.7908405381577227
sg20
F0.7444321684265751
sg21
F-2.7229556117957516
sbsg22
(imodels.polygon
Polygon
p574
(dp575
g6
(lp576
(lp577
F-0.24048663950709537
aF-1.3505417863838365
aa(lp578
F-0.3307190892956158
aF-1.1477443326258447
aa(lp579
F1.7293509763602457
aF-0.23113928993160904
aa(lp580
F1.819583426148766
aF-0.43393674368960067
aasg12
((lp581
F0.7444321684265751
aF-0.7908405381577228
aF1.1328418007327203
tp582
sbsg32
F0.22196554292403725
sba(imodels.rectangle_obstacle
RectangleObstacle
p583
(dp584
g3
(imodels.polygon
Polygon
p585
(dp586
g6
(lp587
(lp588
F0.1998960342165882
aF1.0584819295240075
aa(lp589
F0.1998960342165882
aF-1.0584819295240075
aa(lp590
F-0.1998960342165882
aF-1.0584819295240075
aa(lp591
F-0.1998960342165882
aF1.0584819295240075
aasg12
((lp592
F0.0
aF0.0
aF1.077191914017361
tp593
sbsg15
F0.3997920684331764
sg16
(imodels.pose
Pose
p594
(dp595
g19
F2.7101329630040794
sg20
F-4.716669468633823
sg21
F-2.9917802414832613
sbsg22
(imodels.polygon
Polygon
p596
(dp597
g6
(lp598
(lp599
F-4.756345254801598
aF1.6336719782877942
aa(lp600
F-5.072307717250624
aF3.7269239227126914
aa(lp601
F-4.676993682466048
aF3.7865939477203643
aa(lp602
F-4.361031220017022
aF1.6933420032954676
aasg12
((lp603
F-4.716669468633823
aF2.7101329630040794
aF1.077191914017361
tp604
sbsg32
F2.116963859048015
sba.(lp0
F1.31927006881085
aF-2.5618037540804495
a.