(lp0
(imodels.rectangle_obstacle
RectangleObstacle
p1
(dp2
S'geometry'
p3
(imodels.polygon
Polygon
p4
(dp5
S'vertexes'
p6
(lp7
(lp8
F1.1470795949439434
aF0.08225611824399422
aa(lp9
F1.1470795949439434
aF-0.08225611824399422
aa(lp10
F-1.1470795949439434
aF-0.08225611824399422
aa(lp11
F-1.1470795949439434
aF0.08225611824399422
aasS'bounding_circle'
p12
((lp13
F0.0
aF0.0
aF1.1500250719550993
tp14
sbsS'width'
p15
F2.294159189887887
sS'pose'
p16
(imodels.pose
Pose
p17
(dp18
S'y'
p19
F0.2628377184647076
sS'x'
p20
F0.9831353799001514
sS'theta'
p21
F-1.7699314728626354
sbsS'global_geometry'
p22
(imodels.polygon
Polygon
p23
(dp24
g6
(lp25
(lp26
F0.8368487861365694
aF-0.8778453657485984
aa(lp27
F0.6755876353266179
aF-0.8453012849699083
aa(lp28
F1.1294219736637334
aF1.4035208026780137
aa(lp29
F1.290683124473685
aF1.3709767218993236
aasg12
((lp30
F0.9831353799001514
aF0.26283771846470766
aF1.1500250719550993
tp31
sbsS'height'
p32
F0.16451223648798843
sba(imodels.rectangle_obstacle
RectangleObstacle
p33
(dp34
g3
(imodels.polygon
Polygon
p35
(dp36
g6
(lp37
(lp38
F0.3688625491929553
aF0.66975595161759
aa(lp39
F0.3688625491929553
aF-0.66975595161759
aa(lp40
F-0.3688625491929553
aF-0.66975595161759
aa(lp41
F-0.3688625491929553
aF0.66975595161759
aasg12
((lp42
F0.0
aF0.0
aF0.7646127221831382
tp43
sbsg15
F0.7377250983859106
sg16
(imodels.pose
Pose
p44
(dp45
g19
F-0.03526732012143405
sg20
F2.5605635046206383
sg21
F1.0378261608399066
sbsg22
(imodels.polygon
Polygon
p46
(dp47
g6
(lp48
(lp49
F2.1711183018575317
aF0.6227334769670737
aa(lp50
F3.3248422469382337
aF-0.05786419967908893
aa(lp51
F2.950008707383745
aF-0.6932681172099419
aa(lp52
F1.7962847623030427
aF-0.012670440563779167
aasg12
((lp53
F2.560563504620638
aF-0.03526732012143407
aF0.7646127221831384
tp54
sbsg32
F1.33951190323518
sba(imodels.rectangle_obstacle
RectangleObstacle
p55
(dp56
g3
(imodels.polygon
Polygon
p57
(dp58
g6
(lp59
(lp60
F0.12392079502308548
aF1.0095473702066597
aa(lp61
F0.12392079502308548
aF-1.0095473702066597
aa(lp62
F-0.12392079502308548
aF-1.0095473702066597
aa(lp63
F-0.12392079502308548
aF1.0095473702066597
aasg12
((lp64
F0.0
aF0.0
aF1.0171245037508123
tp65
sbsg15
F0.24784159004617096
sg16
(imodels.pose
Pose
p66
(dp67
g19
F1.776008966706226
sg20
F-3.326517839260857
sg21
F1.1319563680302647
sbsg22
(imodels.polygon
Polygon
p68
(dp69
g6
(lp70
(lp71
F-4.187753050958364
aF2.317133874895349
aa(lp72
F-2.359977306200912
aF1.4592414587725162
aa(lp73
F-2.4652826275633504
aF1.2348840585171028
aa(lp74
F-4.293058372320803
aF2.092776474639936
aasg12
((lp75
F-3.326517839260857
aF1.776008966706226
aF1.0171245037508128
tp76
sbsg32
F2.0190947404133195
sba(imodels.rectangle_obstacle
RectangleObstacle
p77
(dp78
g3
(imodels.polygon
Polygon
p79
(dp80
g6
(lp81
(lp82
F1.1703519516803105
aF0.10251485887026868
aa(lp83
F1.1703519516803105
aF-0.10251485887026868
aa(lp84
F-1.1703519516803105
aF-0.10251485887026868
aa(lp85
F-1.1703519516803105
aF0.10251485887026868
aasg12
((lp86
F0.0
aF0.0
aF1.1748331741532934
tp87
sbsg15
F2.340703903360621
sg16
(imodels.pose
Pose
p88
(dp89
g19
F-0.23818268823938624
sg20
F0.9942747248665342
sg21
F0.686148499366011
sbsg22
(imodels.polygon
Polygon
p90
(dp91
g6
(lp92
(lp93
F1.8348170435820577
aF0.5826227683332623
aa(lp94
F1.9647160844511262
aF0.42399293400799887
aa(lp95
F0.1537324061510107
aF-1.0589881448120348
aa(lp96
F0.023833365281942354
aF-0.9003583104867714
aasg12
((lp97
F0.9942747248665342
aF-0.23818268823938626
aF1.1748331741532936
tp98
sbsg32
F0.20502971774053735
sba(imodels.rectangle_obstacle
RectangleObstacle
p99
(dp100
g3
(imodels.polygon
Polygon
p101
(dp102
g6
(lp103
(lp104
F0.20156046624596619
aF0.4482636207300167
aa(lp105
F0.20156046624596619
aF-0.4482636207300167
aa(lp106
F-0.20156046624596619
aF-0.4482636207300167
aa(lp107
F-0.20156046624596619
aF0.4482636207300167
aasg12
((lp108
F0.0
aF0.0
aF0.4914945525875902
tp109
sbsg15
F0.40312093249193237
sg16
(imodels.pose
Pose
p110
(dp111
g19
F-0.824574792455497
sg20
F-0.3363892883420338
sg21
F1.0219191338504006
sbsg22
(imodels.polygon
Polygon
p112
(dp113
g6
(lp114
(lp115
F-0.6136477746076692
aF-0.4187489344610069
aa(lp116
F0.15118935267461558
aF-0.8864938044601542
aa(lp117
F-0.05913080207639848
aF-1.2304006504499871
aa(lp118
F-0.8239679293586832
aF-0.7626557804508398
aasg12
((lp119
F-0.33638928834203385
aF-0.8245747924554969
aF0.4914945525875904
tp120
sbsg32
F0.8965272414600334
sba(imodels.rectangle_obstacle
RectangleObstacle
p121
(dp122
g3
(imodels.polygon
Polygon
p123
(dp124
g6
(lp125
(lp126
F0.991832842571102
aF0.22760768510586504
aa(lp127
F0.991832842571102
aF-0.22760768510586504
aa(lp128
F-0.991832842571102
aF-0.22760768510586504
aa(lp129
F-0.991832842571102
aF0.22760768510586504
aasg12
((lp130
F0.0
aF0.0
aF1.017613701716876
tp131
sbsg15
F1.983665685142204
sg16
(imodels.pose
Pose
p132
(dp133
g19
F-0.055699737239168344
sg20
F-5.638648295010179
sg21
F0.33976973051958037
sbsg22
(imodels.polygon
Polygon
p134
(dp135
g6
(lp136
(lp137
F-4.779371927545671
aF0.489444069695225
aa(lp138
F-4.627662303084322
aF0.060252710133083955
aa(lp139
F-6.497924662474687
aF-0.6008435441735617
aa(lp140
F-6.649634286936036
aF-0.17165218461142065
aasg12
((lp141
F-5.638648295010179
aF-0.05569973723916833
aF1.0176137017168763
tp142
sbsg32
F0.4552153702117301
sba(imodels.rectangle_obstacle
RectangleObstacle
p143
(dp144
g3
(imodels.polygon
Polygon
p145
(dp146
g6
(lp147
(lp148
F0.4433368033966265
aF0.6639732375553818
aa(lp149
F0.4433368033966265
aF-0.6639732375553818
aa(lp150
F-0.4433368033966265
aF-0.6639732375553818
aa(lp151
F-0.4433368033966265
aF0.6639732375553818
aasg12
((lp152
F0.0
aF0.0
aF0.7983783447938169
tp153
sbsg15
F0.886673606793253
sg16
(imodels.pose
Pose
p154
(dp155
g19
F2.9138589551792635
sg20
F1.5665260942870074
sg21
F2.15066807675728
sbsg22
(imodels.polygon
Polygon
p156
(dp157
g6
(lp158
(lp159
F0.7681789995783622
aF2.9209227930865276
aa(lp160
F1.879049951469959
aF3.6485267849684853
aa(lp161
F2.3648731889956527
aF2.9067951172719995
aa(lp162
F1.2540022371040558
aF2.179191125390042
aasg12
((lp163
F1.5665260942870072
aF2.913858955179263
aF0.7983783447938174
tp164
sbsg32
F1.3279464751107637
sba(imodels.rectangle_obstacle
RectangleObstacle
p165
(dp166
g3
(imodels.polygon
Polygon
p167
(dp168
g6
(lp169
(lp170
F1.1522671094547265
aF0.12412347179911883
aa(lp171
F1.1522671094547265
aF-0.12412347179911883
aa(lp172
F-1.1522671094547265
aF-0.12412347179911883
aa(lp173
F-1.1522671094547265
aF0.12412347179911883
aasg12
((lp174
F0.0
aF0.0
aF1.1589331852106994
tp175
sbsg15
F2.304534218909453
sg16
(imodels.pose
Pose
p176
(dp177
g19
F-0.7575390605679313
sg20
F-5.258490321197189
sg21
F1.6562957767637654
sbsg22
(imodels.polygon
Polygon
p178
(dp179
g6
(lp180
(lp181
F-5.480558605702086
aF0.379919424300712
aa(lp182
F-5.233218471427366
aF0.40111855123627604
aa(lp183
F-5.036422036692292
aF-1.8949975454365746
aa(lp184
F-5.2837621709670115
aF-1.9161966723721386
aasg12
((lp185
F-5.258490321197189
aF-0.7575390605679313
aF1.1589331852106997
tp186
sbsg32
F0.24824694359823765
sba(imodels.rectangle_obstacle
RectangleObstacle
p187
(dp188
g3
(imodels.polygon
Polygon
p189
(dp190
g6
(lp191
(lp192
F0.8233233114841002
aF0.42267839951401487
aa(lp193
F0.8233233114841002
aF-0.42267839951401487
aa(lp194
F-0.8233233114841002
aF-0.42267839951401487
aa(lp195
F-0.8233233114841002
aF0.42267839951401487
aasg12
((lp196
F0.0
aF0.0
aF0.9254827414105969
tp197
sbsg15
F1.6466466229682004
sg16
(imodels.pose
Pose
p198
(dp199
g19
F-1.4620673225001952
sg20
F-0.8065411207814654
sg21
F2.9570976490307608
sbsg22
(imodels.polygon
Polygon
p200
(dp201
g6
(lp202
(lp203
F-1.6934322348022373
aF-1.7265336842928964
aa(lp204
F-1.538351418628936
aF-0.8955234207474095
aa(lp205
F0.08034999323930647
aF-1.197600960707494
aa(lp206
F-0.0747308229339948
aF-2.028611224252981
aasg12
((lp207
F-0.8065411207814654
aF-1.4620673225001952
aF0.9254827414105969
tp208
sbsg32
F0.8453567990280297
sba(imodels.rectangle_obstacle
RectangleObstacle
p209
(dp210
g3
(imodels.polygon
Polygon
p211
(dp212
g6
(lp213
(lp214
F0.4488047708828844
aF0.320900442989873
aa(lp215
F0.4488047708828844
aF-0.320900442989873
aa(lp216
F-0.4488047708828844
aF-0.320900442989873
aa(lp217
F-0.4488047708828844
aF0.320900442989873
aasg12
((lp218
F0.0
aF0.0
aF0.551727121572191
tp219
sbsg15
F0.8976095417657688
sg16
(imodels.pose
Pose
p220
(dp221
g19
F-1.032115228823938
sg20
F-0.8421545355092901
sg21
F-0.3360259091069233
sbsg22
(imodels.polygon
Polygon
p222
(dp223
g6
(lp224
(lp225
F-0.31263725161956735
aF-0.8771498690160573
aa(lp226
F-0.52426331246721
aF-1.4830564522568213
aa(lp227
F-1.3716718193990127
aF-1.1870805886318185
aa(lp228
F-1.1600457585513702
aF-0.5811740053910546
aasg12
((lp229
F-0.8421545355092901
aF-1.032115228823938
aF0.551727121572191
tp230
sbsg32
F0.641800885979746
sba.(lp0
F1.8509929278598558
aF-1.5652750803486717
a.