(lp0
(imodels.rectangle_obstacle
RectangleObstacle
p1
(dp2
S'geometry'
p3
(imodels.polygon
Polygon
p4
(dp5
S'vertexes'
p6
(lp7
(lp8
F1.002782242893471
aF0.22073165274111295
aa(lp9
F1.002782242893471
aF-0.22073165274111295
aa(lp10
F-1.002782242893471
aF-0.22073165274111295
aa(lp11
F-1.002782242893471
aF0.22073165274111295
aasS'bounding_circle'
p12
((lp13
F0.0
aF0.0
aF1.0267885318722076
tp14
sbsS'width'
p15
F2.005564485786942
sS'pose'
p16
(imodels.pose
Pose
p17
(dp18
S'y'
p19
F-3.9732978903193485
sS'x'
p20
F3.28779349581966
sS'theta'
p21
F-2.3381648014409904
sbsS'global_geometry'
p22
(imodels.polygon
Polygon
p23
(dp24
g6
(lp25
(lp26
F2.750487728320498
aF-4.848282005258826
aa(lp27
F2.4327488938294204
aF-4.541798917399895
aa(lp28
F3.8250992633188226
aF-3.098313775379872
aa(lp29
F4.1428380978099
aF-3.4047968632388024
aasg12
((lp30
F3.28779349581966
aF-3.9732978903193485
aF1.0267885318722079
tp31
sbsS'height'
p32
F0.4414633054822259
sba(imodels.rectangle_obstacle
RectangleObstacle
p33
(dp34
g3
(imodels.polygon
Polygon
p35
(dp36
g6
(lp37
(lp38
F1.0805109753951467
aF0.20269579224939444
aa(lp39
F1.0805109753951467
aF-0.20269579224939444
aa(lp40
F-1.0805109753951467
aF-0.20269579224939444
aa(lp41
F-1.0805109753951467
aF0.20269579224939444
aasg12
((lp42
F0.0
aF0.0
aF1.0993587003999108
tp43
sbsg15
F2.1610219507902935
sg16
(imodels.pose
Pose
p44
(dp45
g19
F-1.7166421581718185
sg20
F-0.1548277612676747
sg21
F1.9059578247137514
sbsg22
(imodels.polygon
Polygon
p46
(dp47
g6
(lp48
(lp49
F-0.7016484840935835
aF-0.7629248786632989
aa(lp50
F-0.31881402173102513
aF-0.6295827952462112
aa(lp51
F0.39199296155823404
aF-2.670359437680338
aa(lp52
F0.009158499195675712
aF-2.803701521097426
aasg12
((lp53
F-0.15482776126767472
aF-1.7166421581718185
aF1.099358700399911
tp54
sbsg32
F0.40539158449878887
sba(imodels.rectangle_obstacle
RectangleObstacle
p55
(dp56
g3
(imodels.polygon
Polygon
p57
(dp58
g6
(lp59
(lp60
F0.2069673015198522
aF0.9780041731521586
aa(lp61
F0.2069673015198522
aF-0.9780041731521586
aa(lp62
F-0.2069673015198522
aF-0.9780041731521586
aa(lp63
F-0.2069673015198522
aF0.9780041731521586
aasg12
((lp64
F0.0
aF0.0
aF0.9996637567709689
tp65
sbsg15
F0.4139346030397044
sg16
(imodels.pose
Pose
p66
(dp67
g19
F1.002758662798886
sg20
F4.923741360703304
sg21
F1.5582040190972828
sbsg22
(imodels.polygon
Polygon
p68
(dp69
g6
(lp70
(lp71
F3.9484208528045097
aF1.2220245595395423
aa(lp72
F5.9042741227398166
aF1.1973945515103364
aa(lp73
F5.899061868602099
aF0.7834927660582299
aa(lp74
F3.9432085986667924
aF0.8081227740874357
aasg12
((lp75
F4.923741360703304
aF1.002758662798886
aF0.9996637567709693
tp76
sbsg32
F1.9560083463043172
sba(imodels.rectangle_obstacle
RectangleObstacle
p77
(dp78
g3
(imodels.polygon
Polygon
p79
(dp80
g6
(lp81
(lp82
F0.7736969467469009
aF0.24642412541520514
aa(lp83
F0.7736969467469009
aF-0.24642412541520514
aa(lp84
F-0.7736969467469009
aF-0.24642412541520514
aa(lp85
F-0.7736969467469009
aF0.24642412541520514
aasg12
((lp86
F0.0
aF0.0
aF0.8119924968816681
tp87
sbsg15
F1.5473938934938019
sg16
(imodels.pose
Pose
p88
(dp89
g19
F0.412343052558734
sg20
F-3.21000849820715
sg21
F2.4383979262907456
sbsg22
(imodels.polygon
Polygon
p90
(dp91
g6
(lp92
(lp93
F-3.9595212976354346
aF0.7246928220244753
aa(lp94
F-3.6408171035500327
aF1.1006277033789056
aa(lp95
F-2.4604956987788653
aF0.09999328309299271
aa(lp96
F-2.779199892864267
aF-0.27594159826143766
aasg12
((lp97
F-3.2100084982071504
aF0.41234305255873394
aF0.8119924968816684
tp98
sbsg32
F0.4928482508304103
sba(imodels.rectangle_obstacle
RectangleObstacle
p99
(dp100
g3
(imodels.polygon
Polygon
p101
(dp102
g6
(lp103
(lp104
F0.2010527618877097
aF0.8372270970302145
aa(lp105
F0.2010527618877097
aF-0.8372270970302145
aa(lp106
F-0.2010527618877097
aF-0.8372270970302145
aa(lp107
F-0.2010527618877097
aF0.8372270970302145
aasg12
((lp108
F0.0
aF0.0
aF0.8610292823500931
tp109
sbsg15
F0.4021055237754194
sg16
(imodels.pose
Pose
p110
(dp111
g19
F1.5188785027458855
sg20
F-2.928484879119206
sg21
F2.6756482879218435
sbsg22
(imodels.polygon
Polygon
p112
(dp113
g6
(lp114
(lp115
F-3.48424320404626
aF0.8612280565827348
aa(lp116
F-2.731966701075331
aF2.357181568923406
aa(lp117
F-2.372726554192152
aF2.176528948909036
aa(lp118
F-3.125003057163081
aF0.6805754365683652
aasg12
((lp119
F-2.928484879119206
aF1.5188785027458853
aF0.8610292823500932
tp120
sbsg32
F1.674454194060429
sba(imodels.rectangle_obstacle
RectangleObstacle
p121
(dp122
g3
(imodels.polygon
Polygon
p123
(dp124
g6
(lp125
(lp126
F0.6905604043887209
aF0.10500713754595355
aa(lp127
F0.6905604043887209
aF-0.10500713754595355
aa(lp128
F-0.6905604043887209
aF-0.10500713754595355
aa(lp129
F-0.6905604043887209
aF0.10500713754595355
aasg12
((lp130
F0.0
aF0.0
aF0.698498511841728
tp131
sbsg15
F1.3811208087774418
sg16
(imodels.pose
Pose
p132
(dp133
g19
F3.032853982062937
sg20
F0.5145290449719457
sg21
F1.707760797949498
sbsg22
(imodels.polygon
Polygon
p134
(dp135
g6
(lp136
(lp137
F0.31621849484870646
aF3.702609979986753
aa(lp138
F0.5242659905753481
aF3.7312846249584393
aa(lp139
F0.712839595095185
aF2.363097984139121
aa(lp140
F0.5047920993685434
aF2.3344233391674347
aasg12
((lp141
F0.5145290449719457
aF3.032853982062937
aF0.6984985118417277
tp142
sbsg32
F0.2100142750919071
sba(imodels.rectangle_obstacle
RectangleObstacle
p143
(dp144
g3
(imodels.polygon
Polygon
p145
(dp146
g6
(lp147
(lp148
F0.851826113600438
aF0.43874820259928626
aa(lp149
F0.851826113600438
aF-0.43874820259928626
aa(lp150
F-0.851826113600438
aF-0.43874820259928626
aa(lp151
F-0.851826113600438
aF0.43874820259928626
aasg12
((lp152
F0.0
aF0.0
aF0.9581793741756972
tp153
sbsg15
F1.703652227200876
sg16
(imodels.pose
Pose
p154
(dp155
g19
F0.43871140956799115
sg20
F-2.0971653615027344
sg21
F0.9219564402096392
sbsg22
(imodels.polygon
Polygon
p156
(dp157
g6
(lp158
(lp159
F-1.9320269651969062
aF1.382553039907144
aa(lp160
F-1.232850687007389
aF0.8523149111824431
aa(lp161
F-2.2623037578085627
aF-0.5051302207711617
aa(lp162
F-2.96148003599808
aF0.025107907953539177
aasg12
((lp163
F-2.097165361502735
aF0.43871140956799115
aF0.9581793741756977
tp164
sbsg32
F0.8774964051985725
sba(imodels.rectangle_obstacle
RectangleObstacle
p165
(dp166
g3
(imodels.polygon
Polygon
p167
(dp168
g6
(lp169
(lp170
F0.8436095570603322
aF0.43379144452915125
aa(lp171
F0.8436095570603322
aF-0.43379144452915125
aa(lp172
F-0.8436095570603322
aF-0.43379144452915125
aa(lp173
F-0.8436095570603322
aF0.43379144452915125
aasg12
((lp174
F0.0
aF0.0
aF0.9486053458157495
tp175
sbsg15
F1.6872191141206645
sg16
(imodels.pose
Pose
p176
(dp177
g19
F1.350299918196043
sg20
F-3.7611258673889822
sg21
F-0.4364640639887942
sbsg22
(imodels.polygon
Polygon
p178
(dp179
g6
(lp180
(lp181
F-2.8132229533721578
aF1.3867987908996051
aa(lp182
F-3.1799829181046304
aF0.6005499768107148
aa(lp183
F-4.709028781405807
aF1.3138010454924807
aa(lp184
F-4.342268816673334
aF2.100049859581371
aasg12
((lp185
F-3.7611258673889822
aF1.350299918196043
aF0.9486053458157497
tp186
sbsg32
F0.8675828890583025
sba(imodels.rectangle_obstacle
RectangleObstacle
p187
(dp188
g3
(imodels.polygon
Polygon
p189
(dp190
g6
(lp191
(lp192
F0.2528618019592272
aF0.6911781212086466
aa(lp193
F0.2528618019592272
aF-0.6911781212086466
aa(lp194
F-0.2528618019592272
aF-0.6911781212086466
aa(lp195
F-0.2528618019592272
aF0.6911781212086466
aasg12
((lp196
F0.0
aF0.0
aF0.7359798136685421
tp197
sbsg15
F0.5057236039184544
sg16
(imodels.pose
Pose
p198
(dp199
g19
F2.9550010919110856
sg20
F1.420509324637794
sg21
F-1.427250700653726
sbsg22
(imodels.polygon
Polygon
p200
(dp201
g6
(lp202
(lp203
F2.1407513638389046
aF2.803615190668572
aa(lp204
F0.772612648037359
aF2.6058647538170776
aa(lp205
F0.7002672854366836
aF3.1063869931535995
aa(lp206
F2.068406001238229
aF3.3041374300050936
aasg12
((lp207
F1.420509324637794
aF2.9550010919110856
aF0.7359798136685424
tp208
sbsg32
F1.3823562424172933
sba(imodels.rectangle_obstacle
RectangleObstacle
p209
(dp210
g3
(imodels.polygon
Polygon
p211
(dp212
g6
(lp213
(lp214
F0.12675243675940373
aF0.30779718604955436
aa(lp215
F0.12675243675940373
aF-0.30779718604955436
aa(lp216
F-0.12675243675940373
aF-0.30779718604955436
aa(lp217
F-0.12675243675940373
aF0.30779718604955436
aasg12
((lp218
F0.0
aF0.0
aF0.3328742825219014
tp219
sbsg15
F0.25350487351880746
sg16
(imodels.pose
Pose
p220
(dp221
g19
F0.6230205231205688
sg20
F-2.409288137770289
sg21
F0.4782283133294727
sbsg22
(imodels.polygon
Polygon
p222
(dp223
g6
(lp224
(lp225
F-2.4384062584665642
aF0.9546188087186517
aa(lp226
F-2.155105434933427
aF0.4080869483980095
aa(lp227
F-2.380170017074014
aF0.29142223752248586
aa(lp228
F-2.6634708406071512
aF0.837954097843128
aasg12
((lp229
F-2.409288137770289
aF0.6230205231205688
aF0.3328742825219014
tp230
sbsg32
F0.6155943720991087
sba(imodels.rectangle_obstacle
RectangleObstacle
p231
(dp232
g3
(imodels.polygon
Polygon
p233
(dp234
g6
(lp235
(lp236
F0.09874551121779715
aF0.9546214490881277
aa(lp237
F0.09874551121779715
aF-0.9546214490881277
aa(lp238
F-0.09874551121779715
aF-0.9546214490881277
aa(lp239
F-0.09874551121779715
aF0.9546214490881277
aasg12
((lp240
F0.0
aF0.0
aF0.9597149509332347
tp241
sbsg15
F0.1974910224355943
sg16
(imodels.pose
Pose
p242
(dp243
g19
F3.967053123519526
sg20
F1.884122048670372
sg21
F-1.0121457875491409
sbsg22
(imodels.polygon
Polygon
p244
(dp245
g6
(lp246
(lp247
F2.745952806245695
aF4.389309600488117
aa(lp248
F1.1269699020807493
aF3.377329956296542
aa(lp249
F1.0222912910950492
aF3.5447966465509353
aa(lp250
F2.641274195259995
aF4.55677629074251
aasg12
((lp251
F1.8841220486703723
aF3.967053123519526
aF0.9597149509332349
tp252
sbsg32
F1.9092428981762555
sba(imodels.rectangle_obstacle
RectangleObstacle
p253
(dp254
g3
(imodels.polygon
Polygon
p255
(dp256
g6
(lp257
(lp258
F1.0633909798819596
aF0.05255104882522313
aa(lp259
F1.0633909798819596
aF-0.05255104882522313
aa(lp260
F-1.0633909798819596
aF-0.05255104882522313
aa(lp261
F-1.0633909798819596
aF0.05255104882522313
aasg12
((lp262
F0.0
aF0.0
aF1.0646886816468677
tp263
sbsg15
F2.1267819597639193
sg16
(imodels.pose
Pose
p264
(dp265
g19
F-2.8358329750632203
sg20
F0.0008871071893549207
sg21
F1.6302909400421157
sbsg22
(imodels.polygon
Polygon
p266
(dp267
g6
(lp268
(lp269
F-0.11479968282886469
aF-1.7774480944823299
aa(lp270
F-0.00988354048362034
aF-1.771198774045965
aa(lp271
F0.11657389720757452
aF-3.8942178556441105
aa(lp272
F0.01165775486233018
aF-3.9004671760804754
aasg12
((lp273
F0.0008871071893549209
aF-2.8358329750632203
aF1.0646886816468677
tp274
sbsg32
F0.10510209765044626
sba(imodels.rectangle_obstacle
RectangleObstacle
p275
(dp276
g3
(imodels.polygon
Polygon
p277
(dp278
g6
(lp279
(lp280
F0.9931065444610475
aF0.2346183366636162
aa(lp281
F0.9931065444610475
aF-0.2346183366636162
aa(lp282
F-0.9931065444610475
aF-0.2346183366636162
aa(lp283
F-0.9931065444610475
aF0.2346183366636162
aasg12
((lp284
F0.0
aF0.0
aF1.0204442035457717
tp285
sbsg15
F1.986213088922095
sg16
(imodels.pose
Pose
p286
(dp287
g19
F-1.9168179212528835
sg20
F4.1085324018585885
sg21
F-1.3510344461200534
sbsg22
(imodels.polygon
Polygon
p288
(dp289
g6
(lp290
(lp291
F4.55400250614699
aF-2.8348934947954136
aa(lp292
F4.096051262758671
aF-2.9371857930113654
aa(lp293
F3.6630622975701876
aF-0.9987423477103533
aa(lp294
F4.121013540958506
aF-0.8964500494944019
aasg12
((lp295
F4.1085324018585885
aF-1.9168179212528835
aF1.0204442035457721
tp296
sbsg32
F0.4692366733272324
sba(imodels.rectangle_obstacle
RectangleObstacle
p297
(dp298
g3
(imodels.polygon
Polygon
p299
(dp300
g6
(lp301
(lp302
F0.08366049144128115
aF0.44337407425343506
aa(lp303
F0.08366049144128115
aF-0.44337407425343506
aa(lp304
F-0.08366049144128115
aF-0.44337407425343506
aa(lp305
F-0.08366049144128115
aF0.44337407425343506
aasg12
((lp306
F0.0
aF0.0
aF0.4511980136794567
tp307
sbsg15
F0.1673209828825623
sg16
(imodels.pose
Pose
p308
(dp309
g19
F-2.277302170224944
sg20
F-4.859864662800746
sg21
F2.5664441696302376
sbsg22
(imodels.polygon
Polygon
p310
(dp311
g6
(lp312
(lp313
F-5.171242638356224
aF-2.6038345635449005
aa(lp314
F-4.68888765527223
aF-1.8597539569071513
aa(lp315
F-4.548486687245267
aF-1.9507697769049874
aa(lp316
F-5.030841670329262
aF-2.694850383542737
aasg12
((lp317
F-4.859864662800746
aF-2.277302170224944
aF0.4511980136794568
tp318
sbsg32
F0.8867481485068701
sba(imodels.rectangle_obstacle
RectangleObstacle
p319
(dp320
g3
(imodels.polygon
Polygon
p321
(dp322
g6
(lp323
(lp324
F0.09027486686217157
aF0.6314613071279016
aa(lp325
F0.09027486686217157
aF-0.6314613071279016
aa(lp326
F-0.09027486686217157
aF-0.6314613071279016
aa(lp327
F-0.09027486686217157
aF0.6314613071279016
aasg12
((lp328
F0.0
aF0.0
aF0.6378815987208448
tp329
sbsg15
F0.18054973372434313
sg16
(imodels.pose
Pose
p330
(dp331
g19
F-4.63154986533266
sg20
F3.008334779308853
sg21
F-0.8039418493090658
sbsg22
(imodels.polygon
Polygon
p332
(dp333
g6
(lp334
(lp335
F3.5256874070487862
aF-4.258402183365792
aa(lp336
F2.6162608442563475
aF-5.134710837029695
aa(lp337
F2.49098215156892
aF-5.0046975472995285
aa(lp338
F3.4004087143613586
aF-4.128388893635625
aasg12
((lp339
F3.008334779308853
aF-4.63154986533266
aF0.6378815987208448
tp340
sbsg32
F1.2629226142558032
sba.(lp0
F1.6387706578387864
aF2.445444917751586
a.