(lp0
(imodels.rectangle_obstacle
RectangleObstacle
p1
(dp2
S'geometry'
p3
(imodels.polygon
Polygon
p4
(dp5
S'vertexes'
p6
(lp7
(lp8
F0.5450760940180942
aF0.6794198990066211
aa(lp9
F0.5450760940180942
aF-0.6794198990066211
aa(lp10
F-0.5450760940180942
aF-0.6794198990066211
aa(lp11
F-0.5450760940180942
aF0.6794198990066211
aasS'bounding_circle'
p12
((lp13
F0.0
aF0.0
aF0.87104497440499
tp14
sbsS'width'
p15
F1.0901521880361884
sS'pose'
p16
(imodels.pose
Pose
p17
(dp18
S'y'
p19
F-0.9602560918999529
sS'x'
p20
F-3.8839048924169064
sS'theta'
p21
F-1.9263388002839485
sbsS'global_geometry'
p22
(imodels.polygon
Polygon
p23
(dp24
g6
(lp25
(lp26
F-3.4367178366178144
aF-1.707747285534988
aa(lp27
F-4.7105727937612265
aF-1.2347365617391888
aa(lp28
F-4.331091948215999
aF-0.21276489826491785
aa(lp29
F-3.0572369910725867
aF-0.685775622060717
aasg12
((lp30
F-3.883904892416907
aF-0.960256091899953
aF0.8710449744049904
tp31
sbsS'height'
p32
F1.3588397980132423
sba(imodels.rectangle_obstacle
RectangleObstacle
p33
(dp34
g3
(imodels.polygon
Polygon
p35
(dp36
g6
(lp37
(lp38
F1.1632074463265378
aF0.06760949716040923
aa(lp39
F1.1632074463265378
aF-0.06760949716040923
aa(lp40
F-1.1632074463265378
aF-0.06760949716040923
aa(lp41
F-1.1632074463265378
aF0.06760949716040923
aasg12
((lp42
F0.0
aF0.0
aF1.1651706344118826
tp43
sbsg15
F2.3264148926530757
sg16
(imodels.pose
Pose
p44
(dp45
g19
F1.8280420760739933
sg20
F-2.716510286390103
sg21
F2.573926688258757
sbsg22
(imodels.polygon
Polygon
p46
(dp47
g6
(lp48
(lp49
F-3.73362948167299
aF2.3964531508102977
aa(lp50
F-3.660926886102636
aF2.510464154763719
aa(lp51
F-1.699391091107216
aF1.2596310013376888
aa(lp52
F-1.7720936866775703
aF1.1456199973842676
aasg12
((lp53
F-2.716510286390103
aF1.8280420760739933
aF1.1651706344118826
tp54
sbsg32
F0.13521899432081846
sba(imodels.rectangle_obstacle
RectangleObstacle
p55
(dp56
g3
(imodels.polygon
Polygon
p57
(dp58
g6
(lp59
(lp60
F0.8572237986572054
aF0.4380152268287279
aa(lp61
F0.8572237986572054
aF-0.4380152268287279
aa(lp62
F-0.8572237986572054
aF-0.4380152268287279
aa(lp63
F-0.8572237986572054
aF0.4380152268287279
aasg12
((lp64
F0.0
aF0.0
aF0.9626473808815516
tp65
sbsg15
F1.7144475973144109
sg16
(imodels.pose
Pose
p66
(dp67
g19
F4.783066413572155
sg20
F0.5841066397173901
sg21
F-1.3364801043978358
sbsg22
(imodels.polygon
Polygon
p68
(dp69
g6
(lp70
(lp71
F1.2091808297920936
aF4.050965165915409
aa(lp72
F0.3570893740652151
aF3.847570213144852
aa(lp73
F-0.040967550357313365
aF5.515167661228901
aa(lp74
F0.811123905369565
aF5.718562613999458
aasg12
((lp75
F0.5841066397173901
aF4.783066413572155
aF0.9626473808815513
tp76
sbsg32
F0.8760304536574558
sba(imodels.rectangle_obstacle
RectangleObstacle
p77
(dp78
g3
(imodels.polygon
Polygon
p79
(dp80
g6
(lp81
(lp82
F0.41276034867626027
aF0.47078157331452797
aa(lp83
F0.41276034867626027
aF-0.47078157331452797
aa(lp84
F-0.41276034867626027
aF-0.47078157331452797
aa(lp85
F-0.41276034867626027
aF0.47078157331452797
aasg12
((lp86
F0.0
aF0.0
aF0.6261041408678354
tp87
sbsg15
F0.8255206973525205
sg16
(imodels.pose
Pose
p88
(dp89
g19
F-0.11669173237382438
sg20
F-0.7673459337809311
sg21
F3.047924375153091
sbsg22
(imodels.polygon
Polygon
p90
(dp91
g6
(lp92
(lp93
F-1.2223297233537456
aF-0.5468035160275755
aa(lp94
F-1.134264033979556
aF0.39063213160113397
aa(lp95
F-0.3123621442081167
aF0.3134200512799268
aa(lp96
F-0.40042783358230605
aF-0.6240155963487827
aasg12
((lp97
F-0.7673459337809311
aF-0.11669173237382435
aF0.6261041408678355
tp98
sbsg32
F0.9415631466290559
sba(imodels.rectangle_obstacle
RectangleObstacle
p99
(dp100
g3
(imodels.polygon
Polygon
p101
(dp102
g6
(lp103
(lp104
F0.9475460092532451
aF0.18468341770960156
aa(lp105
F0.9475460092532451
aF-0.18468341770960156
aa(lp106
F-0.9475460092532451
aF-0.18468341770960156
aa(lp107
F-0.9475460092532451
aF0.18468341770960156
aasg12
((lp108
F0.0
aF0.0
aF0.9653763019821079
tp109
sbsg15
F1.8950920185064901
sg16
(imodels.pose
Pose
p110
(dp111
g19
F-3.3031963016857397
sg20
F-1.569015365269866
sg21
F2.579221311096223
sbsg22
(imodels.polygon
Polygon
p112
(dp113
g6
(lp114
(lp115
F-2.4691048160305926
aF-2.954211509670524
aa(lp116
F-2.272160696684603
aF-2.641729713460522
aa(lp117
F-0.6689259145091394
aF-3.6521810937009556
aa(lp118
F-0.8658700338551292
aF-3.9646628899109575
aasg12
((lp119
F-1.569015365269866
aF-3.3031963016857397
aF0.9653763019821079
tp120
sbsg32
F0.3693668354192031
sba(imodels.rectangle_obstacle
RectangleObstacle
p121
(dp122
g3
(imodels.polygon
Polygon
p123
(dp124
g6
(lp125
(lp126
F0.47210418776111934
aF0.5447830916715356
aa(lp127
F0.47210418776111934
aF-0.5447830916715356
aa(lp128
F-0.47210418776111934
aF-0.5447830916715356
aa(lp129
F-0.47210418776111934
aF0.5447830916715356
aasg12
((lp130
F0.0
aF0.0
aF0.7208820854153493
tp131
sbsg15
F0.9442083755222387
sg16
(imodels.pose
Pose
p132
(dp133
g19
F-3.666177000686187
sg20
F2.403713089358176
sg21
F-3.1263269291448976
sbsg22
(imodels.polygon
Polygon
p134
(dp135
g6
(lp136
(lp137
F1.9399800962087648
aF-4.218103347346202
aa(lp138
F1.9233477251147248
aF-3.128664119065626
aa(lp139
F2.8674460825075876
aF-3.114250654026172
aa(lp140
F2.8840784536016275
aF-4.203689882306748
aasg12
((lp141
F2.403713089358176
aF-3.6661770006861873
aF0.7208820854153496
tp142
sbsg32
F1.0895661833430712
sba(imodels.rectangle_obstacle
RectangleObstacle
p143
(dp144
g3
(imodels.polygon
Polygon
p145
(dp146
g6
(lp147
(lp148
F0.4395415544461226
aF0.7676616706966154
aa(lp149
F0.4395415544461226
aF-0.7676616706966154
aa(lp150
F-0.4395415544461226
aF-0.7676616706966154
aa(lp151
F-0.4395415544461226
aF0.7676616706966154
aasg12
((lp152
F0.0
aF0.0
aF0.8845909895209382
tp153
sbsg15
F0.8790831088922452
sg16
(imodels.pose
Pose
p154
(dp155
g19
F2.8117063227990085
sg20
F4.560533487454817
sg21
F0.8865742618880335
sbsg22
(imodels.polygon
Polygon
p156
(dp157
g6
(lp158
(lp159
F4.243485215268536
aF3.63752810251018
aa(lp160
F5.433224147633483
aF2.6670957063887437
aa(lp161
F4.877581759641099
aF1.985884543087837
aa(lp162
F3.6878428272761514
aF2.956316939209273
aasg12
((lp163
F4.560533487454817
aF2.8117063227990085
aF0.8845909895209385
tp164
sbsg32
F1.5353233413932308
sba(imodels.rectangle_obstacle
RectangleObstacle
p165
(dp166
g3
(imodels.polygon
Polygon
p167
(dp168
g6
(lp169
(lp170
F0.19105501866726787
aF0.7131761431997031
aa(lp171
F0.19105501866726787
aF-0.7131761431997031
aa(lp172
F-0.19105501866726787
aF-0.7131761431997031
aa(lp173
F-0.19105501866726787
aF0.7131761431997031
aasg12
((lp174
F0.0
aF0.0
aF0.7383239339119066
tp175
sbsg15
F0.38211003733453575
sg16
(imodels.pose
Pose
p176
(dp177
g19
F0.489217498387043
sg20
F-4.71603229951933
sg21
F-2.9114613522421013
sbsg22
(imodels.polygon
Polygon
p178
(dp179
g6
(lp180
(lp181
F-4.7393711255417275
aF-0.2487374667612713
aa(lp182
F-5.064729734848137
aF1.1400111138921933
aa(lp183
F-4.692693473496932
aF1.2271724635353571
aa(lp184
F-4.367334864190522
aF-0.1615761171181075
aasg12
((lp185
F-4.71603229951933
aF0.489217498387043
aF0.7383239339119066
tp186
sbsg32
F1.4263522863994063
sba(imodels.rectangle_obstacle
RectangleObstacle
p187
(dp188
g3
(imodels.polygon
Polygon
p189
(dp190
g6
(lp191
(lp192
F0.41999447761968683
aF0.6557822625183448
aa(lp193
F0.41999447761968683
aF-0.6557822625183448
aa(lp194
F-0.41999447761968683
aF-0.6557822625183448
aa(lp195
F-0.41999447761968683
aF0.6557822625183448
aasg12
((lp196
F0.0
aF0.0
aF0.7787462597436426
tp197
sbsg15
F0.8399889552393737
sg16
(imodels.pose
Pose
p198
(dp199
g19
F-0.7673850531634343
sg20
F1.881819856436188
sg21
F-2.085824929772432
sbsg22
(imodels.polygon
Polygon
p200
(dp201
g6
(lp202
(lp203
F2.245660776595346
aF-1.4559092153265718
aa(lp204
F1.1042341933713111
aF-0.8098853315233306
aa(lp205
F1.5179789362770306
aF-0.0788608910002968
aa(lp206
F2.659405519501065
aF-0.724884774803538
aasg12
((lp207
F1.881819856436188
aF-0.7673850531634343
aF0.7787462597436428
tp208
sbsg32
F1.3115645250366896
sba(imodels.rectangle_obstacle
RectangleObstacle
p209
(dp210
g3
(imodels.polygon
Polygon
p211
(dp212
g6
(lp213
(lp214
F0.5365362133059073
aF0.38220655889331423
aa(lp215
F0.5365362133059073
aF-0.38220655889331423
aa(lp216
F-0.5365362133059073
aF-0.38220655889331423
aa(lp217
F-0.5365362133059073
aF0.38220655889331423
aasg12
((lp218
F0.0
aF0.0
aF0.6587510621241612
tp219
sbsg15
F1.0730724266118146
sg16
(imodels.pose
Pose
p220
(dp221
g19
F-2.349243733499541
sg20
F-3.84719211370195
sg21
F0.03580612883163692
sbsg22
(imodels.polygon
Polygon
p222
(dp223
g6
(lp224
(lp225
F-3.3246822177150737
aF-1.9480749779296507
aa(lp226
F-3.29731739132466
aF-2.71199812911758
aa(lp227
F-4.369702009688826
aF-2.7504124890694315
aa(lp228
F-4.397066836079239
aF-1.986489337881502
aasg12
((lp229
F-3.84719211370195
aF-2.3492437334995406
aF0.6587510621241616
tp230
sbsg32
F0.7644131177866285
sba(imodels.rectangle_obstacle
RectangleObstacle
p231
(dp232
g3
(imodels.polygon
Polygon
p233
(dp234
g6
(lp235
(lp236
F0.13047224733314983
aF0.9511554081833372
aa(lp237
F0.13047224733314983
aF-0.9511554081833372
aa(lp238
F-0.13047224733314983
aF-0.9511554081833372
aa(lp239
F-0.13047224733314983
aF0.9511554081833372
aasg12
((lp240
F0.0
aF0.0
aF0.9600622989371957
tp241
sbsg15
F0.26094449466629965
sg16
(imodels.pose
Pose
p242
(dp243
g19
F3.071932792444788
sg20
F-0.8743846533444423
sg21
F-1.6956383480694486
sbsg22
(imodels.polygon
Polygon
p244
(dp245
g6
(lp246
(lp247
F0.053122104536977854
aF2.8240400093209743
aa(lp248
F-1.8343836940831055
aF3.060911920364062
aa(lp249
F-1.8018914112258624
aF3.3198255755686015
aa(lp250
F0.085614387394221
aF3.082953664525514
aasg12
((lp251
F-0.8743846533444422
aF3.071932792444788
aF0.9600622989371959
tp252
sbsg32
F1.9023108163666744
sba(imodels.rectangle_obstacle
RectangleObstacle
p253
(dp254
g3
(imodels.polygon
Polygon
p255
(dp256
g6
(lp257
(lp258
F0.5905817786351454
aF0.3923086939571222
aa(lp259
F0.5905817786351454
aF-0.3923086939571222
aa(lp260
F-0.5905817786351454
aF-0.3923086939571222
aa(lp261
F-0.5905817786351454
aF0.3923086939571222
aasg12
((lp262
F0.0
aF0.0
aF0.7090084263322931
tp263
sbsg15
F1.1811635572702908
sg16
(imodels.pose
Pose
p264
(dp265
g19
F1.8126227489969933
sg20
F-1.6853423080564043
sg21
F-1.2457349672777498
sbsg22
(imodels.polygon
Polygon
p266
(dp267
g6
(lp268
(lp269
F-1.1249660851893402
aF1.3782594938113857
aa(lp270
F-1.8684939486837973
aF1.127678645331819
aa(lp271
F-2.2457185309234684
aF2.2469860041826006
aa(lp272
F-1.5021906674290113
aF2.4975668526621675
aasg12
((lp273
F-1.6853423080564043
aF1.8126227489969933
aF0.7090084263322931
tp274
sbsg32
F0.7846173879142444
sba(imodels.rectangle_obstacle
RectangleObstacle
p275
(dp276
g3
(imodels.polygon
Polygon
p277
(dp278
g6
(lp279
(lp280
F0.6401243476031985
aF0.42236387817356974
aa(lp281
F0.6401243476031985
aF-0.42236387817356974
aa(lp282
F-0.6401243476031985
aF-0.42236387817356974
aa(lp283
F-0.6401243476031985
aF0.42236387817356974
aasg12
((lp284
F0.0
aF0.0
aF0.7669096595950781
tp285
sbsg15
F1.280248695206397
sg16
(imodels.pose
Pose
p286
(dp287
g19
F2.8632501753692097
sg20
F-1.583657788803784
sg21
F-2.093356527588866
sbsg22
(imodels.polygon
Polygon
p288
(dp289
g6
(lp290
(lp291
F-1.5371470625959722
aF2.0977521816893696
aa(lp292
F-2.2691410207359843
aF2.519356056896643
aa(lp293
F-1.6301685150115957
aF3.6287481690490497
aa(lp294
F-0.8981745568715834
aF3.2071442938417762
aasg12
((lp295
F-1.583657788803784
aF2.8632501753692097
aF0.7669096595950782
tp296
sbsg32
F0.8447277563471395
sba.(lp0
F0.14931066951030986
aF-2.038092810424958
a.