(lp0
(imodels.circular_obstacle
CircularObstacle
p1
(dp2
S'global_geometry'
p3
(imodels.polygon
Polygon
p4
(dp5
S'vertexes'
p6
(lp7
(lp8
F-4.068090599646213
aF2.1272601644116564
aa(lp9
F-4.073934589298377
aF2.1940913248344467
aa(lp10
F-4.091289171121643
aF2.258893907408376
aa(lp11
F-4.119627568085056
aF2.319700909275393
aa(lp12
F-4.158089602930154
aF2.374666608525796
aa(lp13
F-4.205507807795909
aF2.422122588821441
aa(lp14
F-4.260442861272743
aF2.4606283821259396
aa(lp15
F-4.3212272772373534
aF2.489015192343935
aa(lp16
F-4.386016019347387
aF2.5064213726920443
aa(lp17
F-4.452842504855087
aF2.5123185799294183
aa(lp18
F-4.519678297812901
aF2.5065278115683522
aa(lp19
F-4.584494679757054
aF2.4892248392750993
aa(lp20
F-4.6453242289665475
aF2.4609348735366767
aa(lp21
F-4.700320539134774
aF2.422516621541152
aa(lp22
F-4.747814264766747
aF2.375136222174894
aa(lp23
F-4.7863637921127244
aF2.3202318493079432
aa(lp24
F-4.8147989975841945
aF2.259470057791345
aa(lp25
F-4.832256765419255
aF2.194695197230102
aa(lp26
F-4.838207186502207
aF2.127873429014595
aa(lp27
F-4.832469643104375
aF2.0610330459047614
aa(lp28
F-4.815218291313578
aF1.9962029056928081
aa(lp29
F-4.78697677473984
aF1.935350847715065
aa(lp30
F-4.7486023299563
aF1.8803239615041742
aa(lp31
F-4.701259766135171
aF1.8327925206533684
aa(lp32
F-4.64638610869496
aF1.7941992837115692
aa(lp33
F-4.585646980157634
aF1.7657157010184203
aa(lp34
F-4.520886042221274
aF1.7482063567670134
aa(lp35
F-4.454069033672071
aF1.7422027256118626
aa(lp36
F-4.387224102796133
aF1.7478870404080766
aa(lp37
F-4.322380245427526
aF1.765086760756707
aa(lp38
F-4.261505717270034
aF1.7932798102567884
aa(lp39
F-4.206448289911027
aF1.8316104234937163
aa(lp40
F-4.158879163982802
aF1.8789151217480762
aa(lp41
F-4.120242241918555
aF1.933758028964166
aa(lp42
F-4.091710300066202
aF1.9944744560053327
aa(lp43
F-4.07414939050176
aF2.0592214302495457
aasS'bounding_circle'
p44
((lp45
F-4.4533439215421
aF2.1272775097852796
aF0.3852533222863594
tp46
sbsS'geometry'
p47
(imodels.polygon
Polygon
p48
(dp49
g6
g7
sg44
((lp50
F-4.4533439215421
aF2.1272775097852796
aF0.3852533222863594
tp51
sbsS'pose'
p52
(imodels.pose
Pose
p53
(dp54
S'y'
p55
F2.1272601644116564
sS'x'
p56
F-4.45314913725378
sS'theta'
p57
F2.1947386797436694
sbsS'radius'
p58
F0.3850585376075661
sg55
F2.1272601644116564
sg56
F-4.45314913725378
sba(imodels.circular_obstacle
CircularObstacle
p59
(dp60
g3
(imodels.polygon
Polygon
p61
(dp62
g6
(lp63
(lp64
F1.5455685589456718
aF-4.979351640766452
aa(lp65
F1.541522517804775
aF-4.933081602546174
aa(lp66
F1.5295072069949742
aF-4.888216034546162
aa(lp67
F1.509887336528811
aF-4.846116776016934
aa(lp68
F1.483258443493677
aF-4.808061698280275
aa(lp69
F1.4504288152544638
aF-4.775205916513668
aa(lp70
F1.4123949548826589
aF-4.748546727646827
aa(lp71
F1.370311333528679
aF-4.728893338637432
aa(lp72
F1.3254553478670459
aF-4.7168423039871135
aa(lp73
F1.2791885462881574
aF-4.712759418061745
aa(lp74
F1.2329153007680025
aF-4.71676861185243
aa(lp75
F1.1880401788804984
aF-4.728748191202368
aa(lp76
F1.1459253098726916
aF-4.748334530683626
aa(lp77
F1.1078490389032845
aF-4.7749331110007045
aa(lp78
F1.0749671244443306
aF-4.807736564894065
aa(lp79
F1.0482776566513439
aF-4.845749183782363
aa(lp80
F1.0285907615616436
aF-4.887817141274342
aa(lp81
F1.0165040107128056
aF-4.932663516152785
aa(lp82
F1.0123842825920737
aF-4.978927051750825
aa(lp83
F1.0163566264901707
aF-5.025203475227311
aa(lp84
F1.0283004667835587
aF-5.0700881225453625
aa(lp85
F1.0478532628595019
aF-5.112218575325179
aa(lp86
F1.0744215135913997
aF-5.150316015381787
aa(lp87
F1.1071987723370456
aF-5.183224041681472
aa(lp88
F1.1451901256366528
aF-5.209943771475844
aa(lp89
F1.1872423925898101
aF-5.229664160161673
aa(lp90
F1.2320791282463492
aF-5.241786619544382
aa(lp91
F1.2783393685261508
aF-5.24594318724801
aa(lp92
F1.3246189406134063
aF-5.242007695761508
aa(lp93
F1.3695130848990191
aF-5.230099602098693
aa(lp94
F1.4116590947343957
aF-5.210580361827202
aa(lp95
F1.449777679719233
aF-5.1840424575283786
aa(lp96
F1.4827117969914745
aF-5.151291414715698
aa(lp97
F1.5094617718432801
aF-5.113321351096478
aa(lp98
F1.5292156416198237
aF-5.071284801349012
aa(lp99
F1.5413738018491123
aF-5.026457733346981
aasg44
((lp100
F1.2788413943140546
aF-4.97933963183087
aF0.2667271649019581
tp101
sbsg47
(imodels.polygon
Polygon
p102
(dp103
g6
g63
sg44
((lp104
F1.2788413943140546
aF-4.97933963183087
aF0.2667271649019581
tp105
sbsg52
(imodels.pose
Pose
p106
(dp107
g55
F-4.979351640766452
sg56
F1.278976251713032
sg57
F-1.889192873960231
sbsg58
F0.2665923072326397
sg55
F-4.979351640766452
sg56
F1.278976251713032
sba(imodels.circular_obstacle
CircularObstacle
p108
(dp109
g3
(imodels.polygon
Polygon
p110
(dp111
g6
(lp112
(lp113
F-0.6054049531995367
aF-0.5281281854477012
aa(lp114
F-0.6117004032730998
aF-0.4561341781269938
aa(lp115
F-0.6303956628335785
aF-0.3863254605360716
aa(lp116
F-0.6609232602227946
aF-0.32082099061710545
aa(lp117
F-0.702356567690295
aF-0.26160907615703777
aa(lp118
F-0.7534379280414134
aF-0.21048702214507536
aa(lp119
F-0.8126168292778176
aF-0.1690065757856795
aa(lp120
F-0.8780969684861861
aF-0.13842682511672388
aa(lp121
F-0.9478907764084341
aF-0.11967598093745713
aa(lp122
F-1.0198797476670842
aF-0.11332320210893854
aa(lp123
F-1.0918787453958334
aF-0.11956131943537274
aa(lp124
F-1.1617023283871857
aF-0.13820098252172014
aa(lp125
F-1.2272310874779853
aF-0.16867640727253796
aa(lp126
F-1.2864759776132901
aF-0.2100625495737774
aa(lp127
F-1.337638692867745
aF-0.26110318387150533
aa(lp128
F-1.3791662518147783
aF-0.32024903435675484
aa(lp129
F-1.4097981363717424
aF-0.38570480133119034
aa(lp130
F-1.4286045532792058
aF-0.4554836553259751
aa(lp131
F-1.4350146568341517
aF-0.5274675448717456
aa(lp132
F-1.4288338762106636
aF-0.5994714873513564
aa(lp133
F-1.410249821418535
aF-0.669309891465468
aa(lp134
F-1.3798265886316894
aF-0.7348628981739341
aa(lp135
F-1.3384876377411674
aF-0.7941407264151392
aa(lp136
F-1.2874877618635505
aF-0.8453440704679497
aa(lp137
F-1.2283749996359883
aF-0.8869187156684866
aa(lp138
F-1.1629436464033656
aF-0.9176027146886686
aa(lp139
F-1.0931797905853509
aF-0.9364646923984962
aa(lp140
F-1.0212010284000592
aF-0.9429321166149902
aa(lp141
F-0.9491921868299028
aF-0.9368086766139053
aa(lp142
F-0.8793390058801012
aF-0.91828024190082
aa(lp143
F-0.8137617931235114
aF-0.8879092203704237
aa(lp144
F-0.7544510643666309
aF-0.8466174871051497
aa(lp145
F-0.7032071239853654
aF-0.7956584019885182
aa(lp146
F-0.6615854188953181
aF-0.7365787655041934
aa(lp147
F-0.6308493248697566
aF-0.6711718675057816
aa(lp148
F-0.6119317983186301
aF-0.6014230541043322
aasg44
((lp149
F-1.0204198998417153
aF-0.5281095001076938
aF0.4150149470628165
tp150
sbsg47
(imodels.polygon
Polygon
p151
(dp152
g6
g112
sg44
((lp153
F-1.0204198998417153
aF-0.5281095001076938
aF0.4150149470628165
tp154
sbsg52
(imodels.pose
Pose
p155
(dp156
g55
F-0.5281281854477012
sg56
F-1.020210068059796
sg57
F-1.899121791141009
sbsg58
F0.41480511486025945
sg55
F-0.5281281854477012
sg56
F-1.020210068059796
sba(imodels.circular_obstacle
CircularObstacle
p157
(dp158
g3
(imodels.polygon
Polygon
p159
(dp160
g6
(lp161
(lp162
F-2.880941022860595
aF3.1844345104671037
aa(lp163
F-2.8833058944920693
aF3.2114788970573214
aa(lp164
F-2.8903287266106616
aF3.237702384485742
aa(lp165
F-2.9017963497669435
aF3.2623089909770893
aa(lp166
F-2.9173606783348873
aF3.284551813192437
aa(lp167
F-2.936549276223819
aF3.3037556975633495
aa(lp168
F-2.958779697096103
aF3.3193377337497925
aa(lp169
F-2.98337716381085
aF3.3308249481680656
aa(lp170
F-3.009595050455837
aF3.337868660523429
aa(lp171
F-3.036637545260693
aF3.3402550675724947
aa(lp172
F-3.063683806486444
aF3.337911732858264
aa(lp173
F-3.089912878069033
aF3.3309097854298755
aa(lp174
F-3.1145286087330364
aF3.3194617608076213
aa(lp175
F-3.1367838181864665
aF3.303915149728083
aa(lp176
F-3.1560029768614792
aF3.2847418504893193
aa(lp177
F-3.1716027107852858
aF3.262523845057217
aa(lp178
F-3.18310950918109
aF3.2379355337172164
aa(lp179
F-3.1901740973065515
aF3.2117232644813782
aa(lp180
F-3.1925820382599013
aF3.1846826786105122
aa(lp181
F-3.1902602419489066
aF3.1576345599002447
aa(lp182
F-3.183279183650912
aF3.131399920796295
aa(lp183
F-3.171850764822294
aF3.1067750815693644
aa(lp184
F-3.156321881089832
aF3.084507498990688
aa(lp185
F-3.137163892659722
aF3.065273078199142
aa(lp186
F-3.114958316757045
aF3.04965565643033
aa(lp187
F-3.090379176384133
aF3.038129281353873
aa(lp188
F-3.0641725411795955
aF3.0310438219382263
aa(lp189
F-3.0371338813901376
aF3.0286143486075554
aa(lp190
F-3.010083922347548
aF3.030914605042978
aa(lp191
F-2.9838437323585754
aF3.0378747697836364
aa(lp192
F-2.959209800184223
aF3.049283575571443
aa(lp193
F-2.936929858600984
aF3.0647947221093994
aa(lp194
F-2.91768018789015
aF3.0839373875820795
aa(lp195
F-2.9020450881799063
aF3.1061305198739673
aa(lp196
F-2.8904991437320904
aF3.130700473693265
aa(lp197
F-2.8833928175194052
aF3.1569014582479227
aasg44
((lp198
F-3.036840452207701
aF3.1844415295729656
aF0.1558994295051174
tp199
sbsg47
(imodels.polygon
Polygon
p200
(dp201
g6
g161
sg44
((lp202
F-3.036840452207701
aF3.1844415295729656
aF0.1558994295051174
tp203
sbsg52
(imodels.pose
Pose
p204
(dp205
g55
F3.1844345104671037
sg56
F-3.0367616293717403
sg57
F-1.2246412704680922
sbsg58
F0.15582060651114493
sg55
F3.1844345104671037
sg56
F-3.0367616293717403
sba(imodels.circular_obstacle
CircularObstacle
p206
(dp207
g3
(imodels.polygon
Polygon
p208
(dp209
g6
(lp210
(lp211
F-0.9062316087990585
aF-2.9687525619929587
aa(lp212
F-0.90902492622563
aF-2.936808520993865
aa(lp213
F-0.917320090783262
aF-2.905834102152518
aa(lp214
F-0.9308653129329459
aF-2.8767694959361405
aa(lp215
F-0.9492494440811673
aF-2.850496922793748
aa(lp216
F-0.971914456490836
aF-2.827813854437219
aa(lp217
F-0.9981723815283452
aF-2.8094088075662675
aa(lp218
F-1.0272261921070607
aF-2.7958404447890755
aa(lp219
F-1.0581939954662982
aF-2.7875206171045033
aa(lp220
F-1.0901358019436753
aF-2.7847018626705076
aa(lp221
F-1.122082057207609
aF-2.7874697413183105
aa(lp222
F-1.1530630718890609
aF-2.7957402374887375
aa(lp223
F-1.1821384553121776
aF-2.809262310421395
aa(lp224
F-1.2084256598990608
aF-2.827625514188841
aa(lp225
F-1.2311267698182913
aF-2.850272456278942
aa(lp226
F-1.2495527207406643
aF-2.8765157165604633
aa(lp227
F-1.263144215541173
aF-2.9055587130774403
aa(lp228
F-1.2714887010767804
aF-2.9365198813167592
aa(lp229
F-1.2743328907307259
aF-2.9684594330169594
aa(lp230
F-1.2715904526169035
aF-3.000407882287452
aa(lp231
F-1.2633446300783042
aF-3.031395473162822
aa(lp232
F-1.2498457149375097
aF-3.060481615354921
aa(lp233
F-1.2315034501956144
aF-3.0867834347166228
aa(lp234
F-1.2088745927863298
aF-3.109502571802957
aa(lp235
F-1.1826460139026007
aF-3.1279494150921865
aa(lp236
F-1.153613849864582
aF-3.141564033297151
aa(lp237
F-1.1226593363787833
aF-3.1499331713922523
aa(lp238
F-1.0907220597097897
aF-3.152802794462543
aa(lp239
F-1.058771436692411
aF-3.1500857986217814
aa(lp240
F-1.0277772892734802
aF-3.1418646549439853
aa(lp241
F-0.9986804067569783
aF-3.128388906155207
aa(lp242
F-0.9723639892993967
aF-3.1100675920703584
aa(lp243
F-0.9496268394529894
aF-3.087456833691671
aa(lp244
F-0.9311591154947171
aF-3.061242952838229
aa(lp245
F-0.9175213825188206
aF-3.0322216396895185
aa(lp246
F-0.9091275971714003
aF-3.0012738005866213
aasg44
((lp247
F-1.0903754697140118
aF-2.9687442712297494
aF0.184143861101592
tp248
sbsg47
(imodels.polygon
Polygon
p249
(dp250
g6
g210
sg44
((lp251
F-1.0903754697140118
aF-2.9687442712297494
aF0.184143861101592
tp252
sbsg52
(imodels.pose
Pose
p253
(dp254
g55
F-2.9687525619929587
sg56
F-1.0902823664781458
sg57
F1.2642625358858472
sbsg58
F0.18405075767908732
sg55
F-2.9687525619929587
sg56
F-1.0902823664781458
sba(imodels.circular_obstacle
CircularObstacle
p255
(dp256
g3
(imodels.polygon
Polygon
p257
(dp258
g6
(lp259
(lp260
F1.392353324300983
aF4.064078067684588
aa(lp261
F1.384781517480435
aF4.1506683367359924
aa(lp262
F1.3622959299215092
aF4.234630264447618
aa(lp263
F1.3255790840366872
aF4.313415289555138
aa(lp264
F1.2757454746180807
aF4.3846319893188594
aa(lp265
F1.2143077397159028
aF4.446118668225855
aa(lp266
F1.1431307463670015
aF4.496008973604083
aa(lp267
F1.064374984844817
aF4.532788546467061
aa(lp268
F0.9804309896288257
aF4.555340988022245
aa(lp269
F0.8938467776644585
aF4.562981746586148
aa(lp270
F0.807250506436052
aF4.555478896310515
aa(lp271
F0.7232706994721014
aF4.533060177006774
aa(lp272
F0.6444564607396928
aF4.496406081383594
aa(lp273
F0.5732000997222471
aF4.446629199525911
aa(lp274
F0.5116645158013701
aF4.38524044758845
aa(lp275
F0.4617175461007767
aF4.314103205790287
aa(lp276
F0.42487526958290617
aF4.235376757795328
aa(lp277
F0.40225598833278825
aF4.151450748306908
aa(lp278
F0.3945462828708102
aF4.064872648335773
aa(lp279
F0.4019801718437001
aF3.9782704298442058
aa(lp280
F0.4243320086757305
aF3.8942727968825763
aa(lp281
F0.4609233307935751
aF3.815429394504252
aa(lp282
F0.510643453525006
aF3.744133417419329
aa(lp283
F0.5719831835689102
aF3.682548967506521
aa(lp284
F0.6430806287056262
aF3.6325453651567496
aa(lp285
F0.7217777132500599
aF3.5956404083470126
aa(lp286
F0.805685683790377
aF3.5729543017456677
aa(lp287
F0.8922576168659618
aF3.5651756542746202
aa(lp288
F0.9788657277030757
aF3.572540577230667
aa(lp289
F1.0628811333964328
aF3.5948255174168757
aa(lp290
F1.1417536494232086
aF3.6313540428254982
aa(lp291
F1.2130891973642381
aF3.6810173749013404
aa(lp292
F1.2747224742160412
aF3.742308044153938
aa(lp293
F1.3247826775058893
aF3.813365647543733
aa(lp294
F1.3617502912047188
aF3.8920333187329605
aa(lp295
F1.3845032087712061
aF3.975923197116082
aasg44
((lp296
F0.8931971135622556
aF4.064100541341476
aF0.4991562112446464
tp297
sbsg47
(imodels.polygon
Polygon
p298
(dp299
g6
g259
sg44
((lp300
F0.8931971135622556
aF4.064100541341476
aF0.4991562112446464
tp301
sbsg52
(imodels.pose
Pose
p302
(dp303
g55
F4.064078067684588
sg56
F0.8934494872128981
sg57
F0.15193506695416126
sbsg58
F0.4989038370880849
sg55
F4.064078067684588
sg56
F0.8934494872128981
sba(imodels.circular_obstacle
CircularObstacle
p304
(dp305
g3
(imodels.polygon
Polygon
p306
(dp307
g6
(lp308
(lp309
F1.6467120382364218
aF0.8000921872284054
aa(lp310
F1.6372693780893175
aF0.9080773091519933
aa(lp311
F1.6092280180072436
aF1.0127846752360148
aa(lp312
F1.5634391190586983
aF1.1110360218964335
aa(lp313
F1.5012925470718848
aF1.1998490500949677
aa(lp314
F1.4246746849633578
aF1.2765279493660489
aa(lp315
F1.335911173899861
aF1.3387452258347787
aa(lp316
F1.2376963213151044
aF1.3846123504368328
aa(lp317
F1.1330113185144939
aF1.4127370829003072
aa(lp318
F1.025033750272046
aF1.4222657314903941
aa(lp319
F0.9170411431446072
aF1.4129090657742063
aa(lp320
F0.8123114801759194
aF1.3849510958555782
aa(lp321
F0.7140237017445871
aF1.3392404515969465
aa(lp322
F0.6251612127305832
aF1.277164623501448
aa(lp323
F0.5484213249218237
aF1.200607847141645
aa(lp324
F0.48613338342541335
aF1.1118939095013531
aa(lp325
F0.4401880622558604
aF1.013715613273865
aa(lp326
F0.4119799752458998
aF0.9090530401412289
aa(lp327
F0.4023653442552926
aF0.8010830940524198
aa(lp328
F0.4116360096071623
aF0.6930830702031658
aa(lp329
F0.4395105716331801
aF0.588331176762696
aa(lp330
F0.48514293221511817
aF0.49000702888830144
aa(lp331
F0.5471479770547638
aF0.40109513540976055
aa(lp332
F0.6236436191184089
aF0.3242943077268736
aa(lp333
F0.7123079270787657
aF0.2619357407018291
aa(lp334
F0.8104496046905612
aF0.21591225210037468
aa(lp335
F0.915089681784882
aF0.18762082843170103
aa(lp336
F1.023051937252387
aF0.17792022113756012
aa(lp337
F1.1310593093367176
aF0.18710488024624605
aa(lp338
F1.2358333668219879
aF0.214896016703381
aa(lp339
F1.3341938217885307
aF0.260450064671488
aa(lp340
F1.4231550633493466
aF0.3223842869356289
aa(lp341
F1.500016782204166
aF0.39881874619445096
aa(lp342
F1.5624459352140114
aF0.487433368249613
aa(lp343
F1.6085475620622014
aF0.5855383650105124
aa(lp344
F1.6369223044489685
aF0.690155879710444
aasg44
((lp345
F1.0242235661941543
aF0.8001202137099694
aF0.6224884726731896
tp346
sbsg47
(imodels.polygon
Polygon
p347
(dp348
g6
g308
sg44
((lp349
F1.0242235661941543
aF0.8001202137099694
aF0.6224884726731896
tp350
sbsg52
(imodels.pose
Pose
p351
(dp352
g55
F0.8000921872284054
sg56
F1.0245382967029462
sg57
F0.8645929478738026
sbsg58
F0.6221737415334756
sg55
F0.8000921872284054
sg56
F1.0245382967029462
sba(imodels.circular_obstacle
CircularObstacle
p353
(dp354
g3
(imodels.polygon
Polygon
p355
(dp356
g6
(lp357
(lp358
F-2.0093299322385616
aF4.683107309801583
aa(lp359
F-2.0129071779298173
aF4.724016259832933
aa(lp360
F-2.0235303321011893
aF4.763683468896016
aa(lp361
F-2.0408769419462196
aF4.800904887545596
aa(lp362
F-2.064420472413567
aF4.834550705302579
aa(lp363
F-2.09344628853224
aF4.863599644664422
aa(lp364
F-2.1270733472790297
aF4.88716996073025
aa(lp365
F-2.1642809405581227
aF4.904546205485104
aa(lp366
F-2.2039396775425777
aF4.91520094434633
aa(lp367
F-2.2448457659467063
aF4.918810765792973
aa(lp368
F-2.285757551663425
aF4.915266098125565
aa(lp369
F-2.3254332076507174
aF4.904674535380575
aa(lp370
F-2.362668428067331
aF4.887357571445484
aa(lp371
F-2.3963329834984726
aF4.863840841506425
aa(lp372
F-2.425405027682498
aF4.834838167037247
aa(lp373
F-2.4490021144000123
aF4.801229888624791
aa(lp374
F-2.4664079830457832
aF4.764036144310872
aa(lp375
F-2.4770942998403043
aF4.724385904554091
aa(lp376
F-2.480736694753216
aF4.683482703717219
aa(lp377
F-2.47722460735746
aF4.642568108258781
aa(lp378
F-2.4666646427553456
aF4.602884030507054
aa(lp379
F-2.4493773357115103
aF4.565635031935613
aa(lp380
F-2.4258874212135524
aF4.531951760178231
aa(lp381
F-2.3969079067855183
aF4.502856629607662
aa(lp382
F-2.363318430019626
aF4.479232787202232
aa(lp383
F-2.326138558256785
aF4.4617973057032385
aa(lp384
F-2.286496840871336
aF4.451079417752003
aa(lp385
F-2.2455965535399276
aF4.447404451682598
aa(lp386
F-2.204679174285202
aF4.45088395657956
aa(lp387
F-2.1649866999341554
aF4.461412316342342
aa(lp388
F-2.12772394682883
aF4.478669955532411
aa(lp389
F-2.0940219801049933
aF4.50213303969346
aa(lp390
F-2.064903781598162
aF4.531089375703387
aa(lp391
F-2.041253198485551
aF4.564660029522408
aa(lp392
F-2.023788115189807
aF4.601826005157063
aa(lp393
F-2.0130386628784596
aF4.641459175032927
aasg44
((lp394
F-2.245152695080723
aF4.683117927319195
aF0.2358227630811791
tp395
sbsg47
(imodels.polygon
Polygon
p396
(dp397
g6
g357
sg44
((lp398
F-2.245152695080723
aF4.683117927319195
aF0.2358227630811791
tp399
sbsg52
(imodels.pose
Pose
p400
(dp401
g55
F4.683107309801583
sg56
F-2.245033462964037
sg57
F1.0755788908803714
sbsg58
F0.23570353072547567
sg55
F4.683107309801583
sg56
F-2.245033462964037
sba(imodels.circular_obstacle
CircularObstacle
p402
(dp403
g3
(imodels.polygon
Polygon
p404
(dp405
g6
(lp406
(lp407
F-0.9302306828571605
aF-4.01915610087549
aa(lp408
F-0.938893382606395
aF-3.920090511938098
aa(lp409
F-0.9646185362354461
aF-3.8240319373639386
aa(lp410
F-1.0066252882798823
aF-3.733896117285931
aa(lp411
F-1.0636385753387254
aF-3.6524190138936063
aa(lp412
F-1.1339278290590302
aF-3.5820737646588476
aa(lp413
F-1.2153595054142077
aF-3.524995613283358
aa(lp414
F-1.305461845814332
aF-3.482917096996804
aa(lp415
F-1.401499904304403
aF-3.457115457515652
aa(lp416
F-1.5005585634920529
aF-3.448373871938498
aa(lp417
F-1.5996310193580974
aF-3.456957680366481
aa(lp418
F-1.6957100491021135
aF-3.4826063318301763
aa(lp419
F-1.785879291699606
aF-3.5245412929944866
aa(lp420
F-1.8674017704614867
aF-3.581489679582487
aa(lp421
F-1.9378029706022213
aF-3.6517228932153682
aa(lp422
F-1.9949459500990274
aF-3.7331090908946143
aa(lp423
F-2.037096203944184
aF-3.8231778944796875
aa(lp424
F-2.06297431291568
aF-3.9191953759844482
aa(lp425
F-2.071794778777396
aF-4.018247042605662
aa(lp426
F-2.0632898671139692
aF-4.117326302574915
aa(lp427
F-2.0377177340803714
aF-4.213425726561584
aa(lp428
F-1.995854590388669
aF-4.303628334498969
aa(lp429
F-1.9389711403845524
aF-4.385196136934041
aa(lp430
F-1.8687940113765273
aF-4.455653243336792
aa(lp431
F-1.787453343983158
aF-4.512861014718475
aa(lp432
F-1.697418134329036
aF-4.555082979393227
aa(lp433
F-1.6014212906977596
aF-4.581037541444818
aa(lp434
F-1.5023766794552431
aF-4.589936881997718
aa(lp435
F-1.4032906782125385
aF-4.581510872492122
aa(lp436
F-1.3071709209233524
aF-4.55601527410484
aa(lp437
F-1.2169350048468257
aF-4.514223974432686
aa(lp438
F-1.1353219304636712
aF-4.457405497084315
aa(lp439
F-1.0648089624783135
aF-4.387284497203013
aa(lp440
F-1.0075364354892786
aF-4.305989411676593
aa(lp441
F-0.9652427867594143
aF-4.215987853048019
aa(lp442
F-0.9392117880864588
aF-4.120011708165313
aasg44
((lp443
F-1.5013018266508495
aF-4.019130389371418
aF0.5710711443724974
tp444
sbsg47
(imodels.polygon
Polygon
p445
(dp446
g6
g406
sg44
((lp447
F-1.5013018266508495
aF-4.019130389371418
aF0.5710711443724974
tp448
sbsg52
(imodels.pose
Pose
p449
(dp450
g55
F-4.01915610087549
sg56
F-1.5010130927710839
sg57
F-0.13551162627195756
sbsg58
F0.5707824099139234
sg55
F-4.01915610087549
sg56
F-1.5010130927710839
sba(imodels.circular_obstacle
CircularObstacle
p451
(dp452
g3
(imodels.polygon
Polygon
p453
(dp454
g6
(lp455
(lp456
F2.42803115847832
aF0.7145787326228231
aa(lp457
F2.422894154755987
aF0.7733248872695243
aa(lp458
F2.407639071032037
aF0.8302878744944991
aa(lp459
F2.3827289566494567
aF0.8837386527345228
aa(lp460
F2.3489199275566977
aF0.9320547892193698
aa(lp461
F2.3072382153360813
aF0.9737697069272488
aa(lp462
F2.2589490172036735
aF1.0076172007302833
aa(lp463
F2.2055180925006406
aF1.0325698714970808
aa(lp464
F2.1485672713674595
aF1.0478703115323804
aa(lp465
F2.089825226080571
aF1.053054094758031
aa(lp466
F2.031074999327128
aF1.0479638737965766
aa(lp467
F1.9740998821326592
aF1.0327541560577778
aa(lp468
F1.9206292842507255
aF1.007886613855824
aa(lp469
F1.8722862400524567
aF0.9741160709128744
aa(lp470
F1.8305381433102597
aF0.9324675906114089
aa(lp471
F1.7966522062608754
aF0.8842053614533752
aa(lp472
F1.771656994933255
aF0.8307943241698232
aa(lp473
F1.7563112082891714
aF0.7738557052430205
aa(lp474
F1.7510806488474286
aF0.7151178065664098
aa(lp475
F1.7561240838201104
aF0.6563635449618783
aa(lp476
F1.771288425928723
aF0.5993763339279072
aa(lp477
F1.7961133801806382
aF0.5458859503117124
aa(lp478
F1.8298454155586508
aF0.49751602905610237
aa(lp479
F1.8714606375301508
aF0.45573477975357235
aa(lp480
F1.9196958671089774
aF0.4218104209461417
aa(lp481
F1.9730869831031692
aF0.39677268490807044
aa(lp482
F2.0300133637167463
aF0.3813815613865235
aa(lp483
F2.088747078535244
aF0.37610422904557594
aa(lp484
F2.1475053377326523
aF0.3811008748312602
aa(lp485
F2.2045046064684644
aF0.3962198316934259
aa(lp486
F2.2580147418987253
aF0.4210021822528977
aa(lp487
F2.306411509538552
aF0.45469568867526367
aa(lp488
F2.3482258849064066
aF0.4962776259270742
aa(lp489
F2.382188643959215
aF0.5444858253389823
aa(lp490
F2.4072688888303997
aF0.5978569861865675
aa(lp491
F2.422705339469339
aF0.6547710923878333
aasg44
((lp492
F2.0893844690736403
aF0.7145939796123234
aF0.3386466897479147
tp493
sbsg47
(imodels.polygon
Polygon
p494
(dp495
g6
g455
sg44
((lp496
F2.0893844690736403
aF0.7145939796123234
aF0.3386466897479147
tp497
sbsg52
(imodels.pose
Pose
p498
(dp499
g55
F0.7145787326228231
sg56
F2.089555689023316
sg57
F-0.7977918525422174
sbsg58
F0.33847546945500395
sg55
F0.7145787326228231
sg56
F2.089555689023316
sba(imodels.circular_obstacle
CircularObstacle
p500
(dp501
g3
(imodels.polygon
Polygon
p502
(dp503
g6
(lp504
(lp505
F2.1457411663658736
aF-0.1825127709142204
aa(lp506
F2.1407960301061295
aF-0.12596078941555378
aa(lp507
F2.1261107248686075
aF-0.07112537390574122
aa(lp508
F2.1021310050696638
aF-0.019670986119886602
aa(lp509
F2.069584745672089
aF0.026840539153734966
aa(lp510
F2.0294598484339783
aF0.06699740165174445
aa(lp511
F1.9829742553633734
aF0.09958068909986895
aa(lp512
F1.931538979583459
aF0.1236013757989855
aa(lp513
F1.8767152757610268
aF0.13833034328632904
aa(lp514
F1.820167250137285
aF0.14332051183154032
aa(lp515
F1.7636113486253595
aF0.1384204109931536
aa(lp516
F1.7087642562012957
aF0.12377877731793929
aa(lp517
F1.6572907890385977
aF0.0998400396255793
aa(lp518
F1.6107533610566074
aF0.06733082891731951
aa(lp519
F1.5705645587636246
aF0.027237922383762797
aa(lp520
F1.5379442639271967
aF-0.019221709005621923
aa(lp521
F1.513882625560298
aF-0.07063784016261916
aa(lp522
F1.4991100051633057
aF-0.1254497975319684
aa(lp523
F1.4940748074970747
aF-0.18199383142162784
aa(lp524
F1.498929869806772
aF-0.2385536170826602
aa(lp525
F1.513527822634887
aF-0.2934123516404415
aa(lp526
F1.5374255630402396
aF-0.3449048655387873
aa(lp527
F1.5698977044439126
aF-0.3914681667180726
aa(lp528
F1.6099585948485466
aF-0.4316888833208492
aa(lp529
F1.6563922350949714
aF-0.4643461648598662
aa(lp530
F1.7077891890242145
aF-0.48844873963618846
aa(lp531
F1.7625893651822273
aF-0.5032650035749736
aa(lp532
F1.8191293714811783
aF-0.5083452271692228
aa(lp533
F1.8756930054247027
aF-0.5035352064669865
aa(lp534
F1.9305633473282846
aF-0.4889809437430629
aa(lp535
F1.9820748753090047
aF-0.465124215779143
aa(lp536
F2.0286640201581037
aF-0.43268916427182114
aa(lp537
F2.0689166255652567
aF-0.39266031540017576
aa(lp538
F2.101610873097694
aF-0.3462526957419698
aa(lp539
F2.125754368999121
aF-0.29487495163315625
aa(lp540
F2.1406142670841684
aF-0.24008659143726263
aasg44
((lp541
F1.8197429554366142
aF-0.18249809340088669
aF0.32599821125967465
tp542
sbsg47
(imodels.polygon
Polygon
p543
(dp544
g6
g504
sg44
((lp545
F1.8197429554366142
aF-0.18249809340088669
aF0.32599821125967465
tp546
sbsg52
(imodels.pose
Pose
p547
(dp548
g55
F-0.1825127709142204
sg56
F1.8199077803087191
sg57
F2.214082052979183
sbsg58
F0.3258333860571547
sg55
F-0.1825127709142204
sg56
F1.8199077803087191
sba(imodels.circular_obstacle
CircularObstacle
p549
(dp550
g3
(imodels.polygon
Polygon
p551
(dp552
g6
(lp553
(lp554
F-0.5169155411962522
aF-0.2855867691575414
aa(lp555
F-0.5202730886981455
aF-0.2471902611070662
aa(lp556
F-0.530243816970319
aF-0.2099592319321944
aa(lp557
F-0.546525076793726
aF-0.17502378382772044
aa(lp558
F-0.5686226705093644
aF-0.1434443394425472
aa(lp559
F-0.5958658527816589
aF-0.11617945405169666
aa(lp560
F-0.627427690249877
aF-0.09405671978742769
aa(lp561
F-0.6623501620753507
aF-0.07774764509581292
aa(lp562
F-0.6995732394881998
aF-0.06774727192203989
aa(lp563
F-0.7379670616596063
aF-0.06435914931975847
aa(lp564
F-0.7763662312405295
aF-0.06768611959212095
aa(lp565
F-0.8136051885678758
aF-0.0776271966398939
aa(lp566
F-0.848553590797513
aF-0.09388063127055463
aa(lp567
F-0.8801506220739685
aF-0.11595307042467554
aa(lp568
F-0.9074371932937206
aF-0.14317453230252247
aa(lp569
F-0.9295850540777906
aF-0.17471874283927757
aa(lp570
F-0.9459219332954364
aF-0.20962821624014288
aa(lp571
F-0.955951945029209
aF-0.2468433182864636
aa(lp572
F-0.9593706405833469
aF-0.28523443023188394
aa(lp573
F-0.956074249650268
aF-0.32363623699294647
aa(lp574
F-0.9461628301308938
aF-0.3608830988581915
aa(lp575
F-0.9299372309998726
aF-0.39584443305094047
aa(lp576
F-0.9078899604042048
aF-0.4274590311818527
aa(lp577
F-0.8806902361829235
aF-0.45476727092710023
aa(lp578
F-0.8491636725809613
aF-0.4769402441862081
aa(lp579
F-0.8142672197420696
aF-0.49330491757007633
aa(lp580
F-0.7770601166617257
aF-0.5033645615034537
aa(lp581
F-0.7386717392874903
aF-0.5068138278415288
aa(lp582
F-0.7002673196982692
aF-0.5035480183380949
aa(lp583
F-0.6630125769147138
aF-0.4936662626323105
aa(lp584
F-0.6280383329291052
aF-0.4774685092901708
aa(lp585
F-0.5964061879917015
aF-0.4554464212339314
aa(lp586
F-0.5690762970381055
aF-0.42826845191754903
aa(lp587
F-0.5468782253646477
aF-0.39675955524251905
aa(lp588
F-0.530485768191991
aF-0.36187614509470967
aa(lp589
F-0.5203964984381947
aF-0.32467706457471834
aasg44
((lp590
F-0.7382551405996952
aF-0.28557680371965677
aF0.22133959962778146
tp591
sbsg47
(imodels.polygon
Polygon
p592
(dp593
g6
g553
sg44
((lp594
F-0.7382551405996952
aF-0.28557680371965677
aF0.22133959962778146
tp595
sbsg52
(imodels.pose
Pose
p596
(dp597
g55
F-0.2855867691575414
sg56
F-0.7381432311782928
sg57
F-2.4610398297991387
sbsg58
F0.2212276899820407
sg55
F-0.2855867691575414
sg56
F-0.7381432311782928
sba(imodels.circular_obstacle
CircularObstacle
p598
(dp599
g3
(imodels.polygon
Polygon
p600
(dp601
g6
(lp602
(lp603
F-0.9459661790076949
aF-1.364544899403292
aa(lp604
F-0.9546884287746887
aF-1.2647983036491652
aa(lp605
F-0.9805904248893179
aF-1.1680793933843532
aa(lp606
F-1.0228859440505502
aF-1.0773239524211973
aa(lp607
F-1.080291157685998
aF-0.9952867507807
aa(lp608
F-1.151063600992517
aF-0.9244579270296269
aa(lp609
F-1.2330550633166761
aF-0.8669874031806046
aa(lp610
F-1.3237767944525183
aF-0.8246196264481518
aa(lp611
F-1.4204750475994756
aF-0.7986406186945442
aa(lp612
F-1.5202146659666653
aF-0.7898389408145943
aa(lp613
F-1.6199681758547892
aF-0.7984817569375366
aa(lp614
F-1.716707681904481
aF-0.8243067249877906
aa(lp615
F-1.8074967751436284
aF-0.8665299597566768
aa(lp616
F-1.8895796640776936
aF-0.9238698267758187
aa(lp617
F-1.9604648233581905
aF-0.9945858447584064
aa(lp618
F-2.01800062097664
aF-1.076531515772462
aa(lp619
F-2.060440628413367
aF-1.1672194795510449
aa(lp620
F-2.0864966313317206
aF-1.263897014260272
aa(lp621
F-2.0953777317431626
aF-1.3636295919920087
aa(lp622
F-2.0868143547449955
aF-1.4633899527568048
aa(lp623
F-2.061066431135667
aF-1.5601499932453415
aa(lp624
F-2.0189155075344143
aF-1.6509726811878171
aa(lp625
F-1.961641023492871
aF-1.7331012053637092
aa(lp626
F-1.8909814756778114
aF-1.8040426552227746
aa(lp627
F-1.8090816479385858
aF-1.8616436901251119
aa(lp628
F-1.7184275090257948
aF-1.9041559013533624
aa(lp629
F-1.6217707540610353
aF-1.9302888829134037
aa(lp630
F-1.522045280208802
aF-1.9392494002245095
aa(lp631
F-1.4222781318290028
aF-1.930765467781466
aa(lp632
F-1.325497618260679
aF-1.9050946049407573
aa(lp633
F-1.23464139320884
aF-1.8630160192365692
aa(lp634
F-1.1524672858718032
aF-1.8058069544924562
aa(lp635
F-1.0814695904207197
aF-1.7352039216527104
aa(lp636
F-1.0238033547614036
aF-1.6533499891239718
aa(lp637
F-0.9812189667001672
aF-1.5627297325640557
aa(lp638
F-0.9550090230703112
aF-1.4660938186373236
aasg44
((lp639
F-1.5209630385411854
aF-1.364519011150567
aF0.5749968601162778
tp640
sbsg47
(imodels.polygon
Polygon
p641
(dp642
g6
g602
sg44
((lp643
F-1.5209630385411854
aF-1.364519011150567
aF0.5749968601162778
tp644
sbsg52
(imodels.pose
Pose
p645
(dp646
g55
F-1.364544899403292
sg56
F-1.5206723198174144
sg57
F-1.1516944465897887
sbsg58
F0.5747061408097195
sg55
F-1.364544899403292
sg56
F-1.5206723198174144
sba(imodels.circular_obstacle
CircularObstacle
p647
(dp648
g3
(imodels.polygon
Polygon
p649
(dp650
g6
(lp651
(lp652
F-3.7951837661775256
aF2.470469634602016
aa(lp653
F-3.800291832496286
aF2.528884864593563
aa(lp654
F-3.8154609823688883
aF2.585526971975128
aa(lp655
F-3.8402307748689304
aF2.6386766550972984
aa(lp656
F-3.8738493533464804
aF2.686720620562599
aa(lp657
F-3.915296267113891
aF2.728200552766486
aa(lp658
F-3.963313445973961
aF2.761857379277645
aa(lp659
F-4.016443387396672
aF2.7866694884363112
aa(lp660
F-4.073073397219605
aF2.801883739122319
aa(lp661
F-4.131484540999892
aF2.80703832142943
aa(lp662
F-4.18990382015948
aF2.8019767743382307
aa(lp663
F-4.246557989180858
aF2.786852734898343
aa(lp664
F-4.299727380298343
aF2.762125274764351
aa(lp665
F-4.34779810190245
aF2.7285449656391716
aa(lp666
F-4.3893110262388815
aF2.6871310965912314
aa(lp667
F-4.423006079440633
aF2.6391407347858293
aa(lp668
F-4.447860489523664
aF2.5860305687542047
aa(lp669
F-4.4631198313751685
aF2.5294126924010496
aa(lp670
F-4.468320926401922
aF2.47100567187265
aa(lp671
F-4.463305901747995
aF2.41258238059081
aa(lp672
F-4.448226982331525
aF2.3559161858560844
aa(lp673
F-4.423541870244163
aF2.3027271204599282
aa(lp674
F-4.3899998517658485
aF2.254629673200405
aa(lp675
F-4.348619053699418
aF2.213083783056283
aa(lp676
F-4.300655539381116
aF2.179350524531197
aa(lp677
F-4.247565182419662
aF2.154453829284886
aa(lp678
F-4.190959475439738
aF2.139149405944388
aa(lp679
F-4.13255661520124
aF2.1339018014961946
aa(lp680
F-4.074129348845479
aF2.138870300532641
aa(lp681
F-4.0174511643315
aF2.1539040903636026
aa(lp682
F-3.96424245838579
aF2.1785468387506066
aa(lp683
F-3.91611831597119
aF2.2120505453118446
aa(lp684
F-3.8745394863651352
aF2.253398246155699
aa(lp685
F-3.8407680439081995
aF2.301334882571494
aa(lp686
F-3.815829079286507
aF2.3544053967962517
aa(lp687
F-3.800479584162107
aF2.4109988985072097
aasg44
((lp688
F-4.131922815165838
aF2.470484795703261
aF0.336739049329614
tp689
sbsg47
(imodels.polygon
Polygon
p690
(dp691
g6
g651
sg44
((lp692
F-4.131922815165838
aF2.470484795703261
aF0.336739049329614
tp693
sbsg52
(imodels.pose
Pose
p694
(dp695
g55
F2.470469634602016
sg56
F-4.13175255972019
sg57
F-2.959285179357562
sbsg58
F0.3365687935426641
sg55
F2.470469634602016
sg56
F-4.13175255972019
sba(imodels.circular_obstacle
CircularObstacle
p696
(dp697
g3
(imodels.polygon
Polygon
p698
(dp699
g6
(lp700
(lp701
F-2.9606855478677274
aF1.0629066876206503
aa(lp702
F-2.9669767066811588
aF1.1348516206083517
aa(lp703
F-2.985659222717177
aF1.2046127534574143
aa(lp704
F-3.0161660111316477
aF1.2700725726021032
aa(lp705
F-3.0575710758050065
aF1.3292441255749265
aa(lp706
F-3.1086176168179387
aF1.3803313325100848
aa(lp707
F-3.167756179070387
aF1.4217835039433635
aa(lp708
F-3.233191684089378
aF1.4523424100875673
aa(lp709
F-3.302937917432863
aF1.471080472853413
aa(lp710
F-3.374877817791312
aF1.4774289213439584
aa(lp711
F-3.44682773778537
aF1.471195056197093
aa(lp712
F-3.5166037259019416
aF1.4525680987381646
aa(lp713
F-3.5820878176618787
aF1.4221134473988901
aa(lp714
F-3.6412923238322454
aF1.3807555157419074
aa(lp715
F-3.6924201642933756
aF1.3297496730216674
aa(lp716
F-3.7339194162002465
aF1.2706441389915044
aa(lp717
F-3.764530420695671
aF1.2052329895932425
aa(lp718
F-3.783324018308858
aF1.1355016999839553
aa(lp719
F-3.7897297524507354
aF1.0635668778744636
aa(lp720
F-3.7835531849235564
aF0.9916120165001072
aa(lp721
F-3.7649817978537485
aF0.921821217363516
aa(lp722
F-3.734579302902071
aF0.8563128945141721
aa(lp723
F-3.6932685304880306
aF0.7970754726899905
aa(lp724
F-3.6423034184051413
aF0.7459070311249091
aa(lp725
F-3.5832309500782302
aF0.7043607250606297
aa(lp726
F-3.5178441977802835
aF0.6736976416255347
aa(lp727
F-3.4481278961243387
aF0.6548485210827095
aa(lp728
F-3.3761981978802877
aF0.6483855053516088
aa(lp729
F-3.304238440754825
aF0.6545047713423151
aa(lp730
F-3.2344328748550955
aF0.6730205762462117
aa(lp731
F-3.1689003624575522
aF0.7033708955309659
aa(lp732
F-3.109630062544157
aF0.7446344825054015
aa(lp733
F-3.0584210523228923
aF0.7955588316321116
aa(lp734
F-3.0168277184472263
aF0.8545981967957721
aa(lp735
F-2.986112575517036
aF0.9199605105292885
aa(lp736
F-2.9672079439974848
aF0.9896617800222512
aasg44
((lp737
F-3.37541760177408
aF1.0629253602238946
aF0.4147320543267036
tp738
sbsg47
(imodels.polygon
Polygon
p739
(dp740
g6
g700
sg44
((lp741
F-3.37541760177408
aF1.0629253602238946
aF0.4147320543267036
tp742
sbsg52
(imodels.pose
Pose
p743
(dp744
g55
F1.0629066876206503
sg56
F-3.3752079130228814
sg57
F-0.03492311915676094
sbsg58
F0.4145223651551539
sg55
F1.0629066876206503
sg56
F-3.3752079130228814
sba(imodels.circular_obstacle
CircularObstacle
p745
(dp746
g3
(imodels.polygon
Polygon
p747
(dp748
g6
(lp749
(lp750
F3.0258549126309955
aF-3.513840782097586
aa(lp751
F3.0202245318288456
aF-3.449452426705722
aa(lp752
F3.0035042927211526
aF-3.3870185008142024
aa(lp753
F2.976201717644307
aF-3.3284341096146735
aa(lp754
F2.9391455427547277
aF-3.2754775103979648
aa(lp755
F2.8934605627599876
aF-3.2297561357365834
aa(lp756
F2.840533489155993
aF-3.1926578018418716
aa(lp757
F2.781970858301515
aF-3.1653085831062593
aa(lp758
F2.719550266978817
aF-3.1485386314971784
aa(lp759
F2.655166415625075
aF-3.1428569783129845
aa(lp760
F2.5907735970260846
aF-3.148436083162661
aa(lp761
F2.528326376157364
aF-3.165106599166055
aa(lp762
F2.469720261763275
aF-3.192362513270579
aa(lp763
F2.4167341705155563
aF-3.2293765056563593
aa(lp764
F2.370976430181118
aF-3.275025062013952
aa(lp765
F2.333835960806675
aF-3.3279225764422526
aa(lp766
F2.306440115755429
aF-3.3864634098149873
aa(lp767
F2.289620462279396
aF-3.4488706269856992
aa(lp768
F2.2838875403161008
aF-3.5132499334731797
aa(lp769
F2.2894153656753904
aF-3.577647174445471
aa(lp770
F2.3060361480031064
aF-3.6401076506913412
aa(lp771
F2.333245383851343
aF-3.6987354511157235
aa(lp772
F2.3702171702614065
aF-3.751751000794048
aa(lp773
F2.4158292740344445
aF-3.797545077784897
aa(lp774
F2.468697195742815
aF-3.8347276590869503
aa(lp775
F2.527216194510938
aF-3.8621701130811292
aa(lp776
F2.5896099979549794
aF-3.8790394577581613
aa(lp777
F2.6539847187509418
aF-3.884823644865104
aa(lp778
F2.718386341259904
aF-3.8793471025015953
aa(lp779
F2.7808600332744664
aF-3.8627760643894002
aa(lp780
F2.8395094825511245
aF-3.835613524051815
aa(lp781
F2.892554457040967
aF-3.798683967062621
aa(lp782
F2.9383848416485394
aF-3.753108344798431
aa(lp783
F2.9756095112993775
aF-3.70027004933546
aa(lp784
F3.003098556834232
aF-3.641772922280972
aa(lp785
F3.0200175820147988
aF-3.5793925721297786
aasg44
((lp786
F2.6546833266642
aF-3.513824070730102
aF0.37117158634299585
tp787
sbsg47
(imodels.polygon
Polygon
p788
(dp789
g6
g749
sg44
((lp790
F2.6546833266642
aF-3.513824070730102
aF0.37117158634299585
tp791
sbsg52
(imodels.pose
Pose
p792
(dp793
g55
F-3.513840782097586
sg56
F2.6548709912192026
sg57
F-2.6057271857733966
sbsg58
F0.37098392141179276
sg55
F-3.513840782097586
sg56
F2.6548709912192026
sba(imodels.circular_obstacle
CircularObstacle
p794
(dp795
g3
(imodels.polygon
Polygon
p796
(dp797
g6
(lp798
(lp799
F-2.270383095976291
aF-1.3046113600322913
aa(lp800
F-2.274314662450354
aF-1.2596504402873896
aa(lp801
F-2.2859900239976616
aF-1.2160542540781913
aa(lp802
F-2.305054789348297
aF-1.17514611012894
aa(lp803
F-2.330930270949337
aF-1.1381677249402693
aa(lp804
F-2.3628310503152674
aF-1.1062415320088577
aa(lp805
F-2.399788818442117
aF-1.0803366117362636
aa(lp806
F-2.4406817676388157
aF-1.0612392761827452
aa(lp807
F-2.484268642622794
aF-1.0495292015297581
aa(lp808
F-2.5292264173006207
aF-1.0455618327209382
aa(lp809
F-2.5741904536012443
aF-1.049457594367094
aa(lp810
F-2.6177959233897377
aF-1.061098235404952
aa(lp811
F-2.6587192361502012
aF-1.080130418463044
aa(lp812
F-2.6957182149513548
aF-1.105976444983947
aa(lp813
F-2.7276698012026896
aF-1.1378517905549521
aa(lp814
F-2.7536041437195866
aF-1.174788918183718
aa(lp815
F-2.772734037365674
aF-1.215666646696159
aa(lp816
F-2.784478817698556
aF-1.2592441828148957
aa(lp817
F-2.788481986326281
aF-1.3041987839162896
aa(lp818
F-2.7846220319784756
aF-1.3491659082593062
aa(lp819
F-2.773016118831821
aF-1.3927806339752817
aa(lp820
F-2.7540165301352713
aF-1.4337190895959984
aa(lp821
F-2.7281999750844093
aF-1.4707386385472387
aa(lp822
F-2.696350083521644
aF-1.5027155978568345
aa(lp823
F-2.6594336198141373
aF-1.5286793461721258
aa(lp824
F-2.618571137908006
aF-1.5478417857798212
aa(lp825
F-2.5750029682886098
aF-1.5596212643448069
aa(lp826
F-2.530051569270994
aF-1.5636602302528817
aa(lp827
F-2.485081385400872
aF-1.5598360856511642
aa(lp828
F-2.4414574314150967
aF-1.548264907755444
aa(lp829
F-2.4005038588946888
aF-1.529297925468766
aa(lp830
F-2.3634637632688027
aF-1.503510858259161
aa(lp831
F-2.3314614511786975
aF-1.4716864409018087
aa(lp832
F-2.305468313529568
aF-1.4347906645256314
aa(lp833
F-2.2862733401118636
aF-1.393943455138195
aa(lp834
F-2.27445917078457
aF-1.3503846796462982
aasg44
((lp835
F-2.5295637473017893
aF-1.304599690865596
aF0.2591806515881904
tp836
sbsg47
(imodels.polygon
Polygon
p837
(dp838
g6
g798
sg44
((lp839
F-2.5295637473017893
aF-1.304599690865596
aF0.2591806515881904
tp840
sbsg52
(imodels.pose
Pose
p841
(dp842
g55
F-1.3046113600322913
sg56
F-2.529432705424029
sg57
F-2.470275845096728
sbsg58
F0.2590496094477375
sg55
F-1.3046113600322913
sg56
F-2.529432705424029
sba(imodels.circular_obstacle
CircularObstacle
p843
(dp844
g3
(imodels.polygon
Polygon
p845
(dp846
g6
(lp847
(lp848
F3.156922188661535
aF2.995663283186791
aa(lp849
F3.153095957326815
aF3.039419602989773
aa(lp850
F3.141733403878665
aF3.081847753409813
aa(lp851
F3.1231794246810796
aF3.121659880015449
aa(lp852
F3.0979972030002236
aF3.1576475345673067
aa(lp853
F3.0669511142676127
aF3.1887183559812073
aa(lp854
F3.030983524402055
aF3.213929227608159
aa(lp855
F2.9911861854488024
aF3.232514904382695
aa(lp856
F2.9487670967861908
aF3.243911240897608
aa(lp857
F2.905013837787158
aF3.247772315345374
aa(lp858
F2.861254484927699
aF3.243980929550053
aa(lp859
F2.818817299655462
aF3.232652166374073
aa(lp860
F2.7789904106437584
aF3.214129896519191
aa(lp861
F2.74298271422668
aF3.188976340753392
aa(lp862
F2.7118871798346262
aF3.157955004389524
aa(lp863
F2.686647674248709
aF3.1220075020186213
aa(lp864
F2.668030311683075
aF3.0822249759546905
aa(lp865
F2.6566001993282304
aF3.039814975948993
aa(lp866
F2.6527042842158655
aF2.9960648054994405
aa(lp867
F2.6564608220675323
aF2.9523024473329
aa(lp868
F2.6677557877873617
aF2.9098562541194264
aa(lp869
F2.686246336553896
aF2.8700146279573326
aa(lp870
F2.711371210453854
aF2.8339869125088226
aa(lp871
F2.742367774777223
aF2.802866684857424
aa(lp872
F2.7782951668578537
aF2.777598561317828
aa(lp873
F2.8180628548049174
aF2.7589495247670413
aa(lp874
F2.8604637392599788
aF2.7474856438205153
aa(lp875
F2.9042107934164783
aF2.7435548905140927
aa(lp876
F2.9479761291388
aF2.7472765780399486
aa(lp877
F2.9904313033768357
aF2.7585377391410786
aa(lp878
F3.030287641424297
aF2.7769965550937368
aa(lp879
F3.066335353057756
aF2.802092731195259
aa(lp880
F3.097480254234033
aF2.833064503822081
aa(lp881
F3.1227769797038722
aF2.868971762829575
aa(lp882
F3.1414576784137793
aF2.908724587441636
aa(lp883
F3.152955320682324
aF2.9511163294581206
aasg44
((lp884
F2.9046855455837512
aF2.9956746397113596
aF0.25223664333343787
tp885
sbsg47
(imodels.polygon
Polygon
p886
(dp887
g6
g847
sg44
((lp888
F2.9046855455837512
aF2.9956746397113596
aF0.25223664333343787
tp889
sbsg52
(imodels.pose
Pose
p890
(dp891
g55
F2.995663283186791
sg56
F2.9048130765671782
sg57
F-1.4069424841104556
sbsg58
F0.25210911209435677
sg55
F2.995663283186791
sg56
F2.9048130765671782
sba(imodels.circular_obstacle
CircularObstacle
p892
(dp893
g3
(imodels.polygon
Polygon
p894
(dp895
g6
(lp896
(lp897
F5.558238860670365
aF2.9923895174166053
aa(lp898
F5.550607033448422
aF3.0796661725352394
aa(lp899
F5.527943206530929
aF3.164293651907465
aa(lp900
F5.490935312567332
aF3.2437031922651687
aa(lp901
F5.440706680756956
aF3.3154844144747426
aa(lp902
F5.378781939569881
aF3.3774584876372864
aa(lp903
F5.307040738521001
aF3.427744264826337
aa(lp904
F5.227660693716006
aF3.4648153829939825
aa(lp905
F5.143051288987202
aF3.4875465938477834
aa(lp906
F5.055780738969085
aF3.4952479193816117
aa(lp907
F4.968498034095232
aF3.4876855953111723
aa(lp908
F4.883852533744943
aF3.4650891667019432
aa(lp909
F4.804413548191006
aF3.428144520410446
aa(lp910
F4.732592350339818
aF3.3779730658305445
aa(lp911
F4.670568984501818
aF3.3160976958876653
aa(lp912
F4.620226093822131
aF3.2443965614931827
aa(lp913
F4.58309177495858
aF3.165046062578666
aa(lp914
F4.560293194583157
aF3.0804547861471807
aa(lp915
F4.552522375621134
aF2.993190396571008
aa(lp916
F4.560015191744525
aF2.905901697291069
aa(lp917
F4.582544207716274
aF2.8212382296395058
aa(lp918
F4.61942558290773
aF2.741769849264481
aa(lp919
F4.669539828441614
aF2.6699087213161103
aa(lp920
F4.731365787902877
aF2.607836102133923
aa(lp921
F4.80302681017467
aF2.5574361298878556
aa(lp922
F4.882347712879673
aF2.520238633876619
aa(lp923
F4.966920807371437
aF2.4973726984369833
aa(lp924
F5.054178981168147
aF2.4895323909745244
aa(lp925
F5.141473619501236
aF2.4969556943994
aa(lp926
F5.226155000765893
aF2.5194172834472006
aa(lp927
F5.305652725568218
aF2.5562353641507953
aa(lp928
F5.3775537380440195
aF2.6062923688593997
aa(lp929
F5.439675571207891
aF2.6680688786329587
aa(lp930
F5.490132593059885
aF2.739689743339202
aa(lp931
F5.527393242630523
aF2.818980999534426
aa(lp932
F5.550326518634252
aF2.903535858455599
aasg44
((lp933
F5.05512592509205
aF2.9924121692182797
aF0.5031129360882445
tp934
sbsg47
(imodels.polygon
Polygon
p935
(dp936
g6
g896
sg44
((lp937
F5.05512592509205
aF2.9924121692182797
aF0.5031129360882445
tp938
sbsg52
(imodels.pose
Pose
p939
(dp940
g55
F2.9923895174166053
sg56
F5.055380299264917
sg57
F0.09995361469728302
sbsg58
F0.5028585614054479
sg55
F2.9923895174166053
sg56
F5.055380299264917
sba(imodels.circular_obstacle
CircularObstacle
p941
(dp942
g3
(imodels.polygon
Polygon
p943
(dp944
g6
(lp945
(lp946
F2.5087915404038337
aF4.411096363918337
aa(lp947
F2.5036517608154867
aF4.46987426303379
aa(lp948
F2.488388433751499
aF4.526868031163131
aa(lp949
F2.4634648587713297
aF4.58034769242656
aa(lp950
F2.429637560403347
aF4.6286899373451265
aa(lp951
F2.387933324771299
aF4.670427396407579
aa(lp952
F2.3396180327617615
aF4.704293180270888
aa(lp953
F2.2861582357635144
aF4.72925933463133
aa(lp954
F2.2291766403001194
aF4.744568042515708
aa(lp955
F2.1704028527650396
aF4.749754626885462
aa(lp956
F2.111620879342413
aF4.744661655337842
aa(lp957
F2.054614974688947
aF4.729443718773276
aa(lp958
F2.001115483073732
aF4.704562738978324
aa(lp959
F1.9527463159017098
aF4.670773947556786
aa(lp960
F1.9109756598760927
aF4.629102961801313
aa(lp961
F1.8770714119929817
aF4.580814653339287
aa(lp962
F1.852062694084212
aF4.52737475450702
aa(lp963
F1.8367086150872496
aF4.470405367843671
aa(lp964
F1.8314752292250924
aF4.411635729159559
aa(lp965
F1.8365213895023471
aF4.352849718705545
aa(lp966
F1.8516939259172442
aF4.295831713677467
aa(lp967
F1.876532294749046
aF4.242312425636439
aa(lp968
F1.910282557797439
aF4.193916366883607
aa(lp969
F1.9519202672512508
aF4.152112540383116
aa(lp970
F2.000181561544395
aF4.118169849980118
aa(lp971
F2.053601528322498
aF4.0931185843819575
aa(lp972
F2.1105586700594454
aF4.077719144008991
aa(lp973
F2.169324122624626
aF4.072438959973109
aa(lp974
F2.228114132831683
aF4.077438305780045
aa(lp975
F2.2851442020771833
aF4.092565432423817
aa(lp976
F2.3386832526055015
aF4.117361174541557
aa(lp977
F2.3871061722494433
aF4.151072887814537
aa(lp978
F2.4289431427154837
aF4.192677294562703
aa(lp979
F2.4629242541140752
aF4.240911544082725
aa(lp980
F2.4880180515157084
aF4.294311544931125
aa(lp981
F2.503462843499335
aF4.351256405623076
aasg44
((lp982
F2.1699618575876767
aF4.411111619146805
aF0.3388296831595773
tp983
sbsg47
(imodels.polygon
Polygon
p984
(dp985
g6
g945
sg44
((lp986
F2.1699618575876767
aF4.411111619146805
aF0.3388296831595773
tp987
sbsg52
(imodels.pose
Pose
p988
(dp989
g55
F4.411096363918337
sg56
F2.1701331700589206
sg57
F1.0556578726206602
sbsg58
F0.3386583703449129
sg55
F4.411096363918337
sg56
F2.1701331700589206
sba(imodels.circular_obstacle
CircularObstacle
p990
(dp991
g3
(imodels.polygon
Polygon
p992
(dp993
g6
(lp994
(lp995
F-0.09361994082804044
aF0.39972819867687903
aa(lp996
F-0.09443944728318007
aF0.4090999756016854
aa(lp997
F-0.09687309153598117
aF0.41818728374046643
aa(lp998
F-0.1008470033021032
aF0.42671428900805164
aa(lp999
F-0.10624055936729865
aF0.4344221646252332
aa(lp1000
F-0.11289004495703377
aF0.4410769474879758
aa(lp1001
F-0.12059362309753278
aF0.44647663983028335
aa(lp1002
F-0.1291174611293906
aF0.4504573406184616
aa(lp1003
F-0.1382028284109526
aF0.4528982205658311
aa(lp1004
F-0.147573949769387
aF0.4537251897574236
aa(lp1005
F-0.1569463763175811
aF0.45291314655841564
aa(lp1006
F-0.16603561955098894
aF0.45048673954344526
aa(lp1007
F-0.1745657866470177
aF0.4465196193193813
aa(lp1008
F-0.1822779548530378
aF0.44113220295154776
aa(lp1009
F-0.1889380307687484
aF0.4344880188515005
aa(lp1010
F-0.19434385596402687
aF0.4267887430728028
aa(lp1011
F-0.19833134324995433
aF0.4182680776819478
aa(lp1012
F-0.20077945734404168
aF0.4091846570189663
aa(lp1013
F-0.2016138887476758
aF0.3998141971694723
aa(lp1014
F-0.2008093093197456
aF0.39044112694128674
aa(lp1015
F-0.19839014108127873
aF0.38134995437707137
aa(lp1016
F-0.19442981491496789
aF0.372816630861888
aa(lp1017
F-0.18904854166085266
aF0.36510017495759534
aa(lp1018
F-0.18240966326381194
aF0.3584348102123129
aa(lp1019
F-0.174714694729306
aF0.3530228555920936
aa(lp1020
F-0.1661972073827172
aF0.3490285843370275
aa(lp1021
F-0.15711573909844329
aF0.34657323764866044
aa(lp1022
F-0.14774594670003885
aF0.3457313445621279
aa(lp1023
F-0.13837223873566604
aF0.34652845970876733
aa(lp1024
F-0.12927914260568607
aF0.3489403876366482
aa(lp1025
F-0.12074266808263842
aF0.35289391723381924
aa(lp1026
F-0.11302192937335831
aF0.3582690439617552
aa(lp1027
F-0.10635128002525397
aF0.3649026124458355
aa(lp1028
F-0.10093319941201095
aF0.3725932688564905
aa(lp1029
F-0.09693214672071865
aF0.3811075727575649
aa(lp1030
F-0.0944695689950964
aF0.3901870829042423
aasg44
((lp1031
F-0.14764426375626566
aF0.39973063102985995
aF0.054024322982981494
tp1032
sbsg47
(imodels.polygon
Polygon
p1033
(dp1034
g6
g994
sg44
((lp1035
F-0.14764426375626566
aF0.39973063102985995
aF0.054024322982981494
tp1036
sbsg52
(imodels.pose
Pose
p1037
(dp1038
g55
F0.39972819867687903
sg56
F-0.14761694902931735
sg57
F-2.073151143666456
sbsg58
F0.05399700820127691
sg55
F0.39972819867687903
sg56
F-0.14761694902931735
sba(imodels.circular_obstacle
CircularObstacle
p1039
(dp1040
g3
(imodels.polygon
Polygon
p1041
(dp1042
g6
(lp1043
(lp1044
F-1.4943964157125988
aF0.6961662108045439
aa(lp1045
F-1.495329560781074
aF0.7068375451978042
aa(lp1046
F-1.4981006715132483
aF0.7171849643331069
aa(lp1047
F-1.5026256342439928
aF0.7268943850025893
aa(lp1048
F-1.5087670992833655
aF0.7356710896587666
aa(lp1049
F-1.5163386499978737
aF0.7432486722039606
aa(lp1050
F-1.5251104612585835
aF0.7493971244204202
aa(lp1051
F-1.53481627550083
aF0.7539298175874679
aa(lp1052
F-1.5451614846458013
aF0.756709167367256
aa(lp1053
F-1.5558320725671781
aF0.7576508100084769
aa(lp1054
F-1.566504146665241
aF0.7567261631044891
aa(lp1055
F-1.5768537692292008
aF0.7539632931771901
aa(lp1056
F-1.5865667901688227
aF0.7494460637521921
aa(lp1057
F-1.5953483826548402
aF0.7433115897844325
aa(lp1058
F-1.6029319922254996
aF0.7357460757020053
aa(lp1059
F-1.6090874277200893
aF0.7269791633992875
aa(lp1060
F-1.6136278484490947
aF0.717276961739086
aa(lp1061
F-1.61641543551401
aF0.7069339691447195
aa(lp1062
F-1.6173655751308469
aF0.6962641344618336
aa(lp1063
F-1.6164494269776983
aF0.6855913274265178
aa(lp1064
F-1.6136947996073112
aF0.6752395079969725
aa(lp1065
F-1.609185306352599
aF0.6655228929465907
aa(lp1066
F-1.603057827346545
aF0.6567364181994598
aa(lp1067
F-1.5954983546937664
aF0.6491467864123772
aa(lp1068
F-1.5867363469084579
aF0.642984371543043
aa(lp1069
F-1.5770377639828201
aF0.6384362261313254
aa(lp1070
F-1.5666969944979257
aF0.6356404035489938
aa(lp1071
F-1.5560279198196605
aF0.6346817675590587
aa(lp1072
F-1.5453543866151067
aF0.635589416380405
aa(lp1073
F-1.5350003768844407
aF0.6383357994470712
aa(lp1074
F-1.5252801738849575
aF0.6428375536718641
aa(lp1075
F-1.5164888224485362
aF0.6489580338305552
aa(lp1076
F-1.5088931732578919
aF0.6565114602599488
aa(lp1077
F-1.502723782921624
aF0.6652685579715406
aa(lp1078
F-1.4981679157113386
aF0.6749635160123909
aa(lp1079
F-1.4953638593845229
aF0.6853020558303556
aasg44
((lp1080
F-1.5559121367932613
aF0.6961689804449471
aF0.06151572114301167
tp1081
sbsg47
(imodels.polygon
Polygon
p1082
(dp1083
g6
g1043
sg44
((lp1084
F-1.5559121367932613
aF0.6961689804449471
aF0.06151572114301167
tp1085
sbsg52
(imodels.pose
Pose
p1086
(dp1087
g55
F0.6961662108045439
sg56
F-1.5558810344113472
sg57
F-2.0523047213711747
sbsg58
F0.06148461869874831
sg55
F0.6961662108045439
sg56
F-1.5558810344113472
sba(imodels.circular_obstacle
CircularObstacle
p1088
(dp1089
g3
(imodels.polygon
Polygon
p1090
(dp1091
g6
(lp1092
(lp1093
F-1.5079167230675063
aF0.38257017342436545
aa(lp1094
F-1.5123814963135418
aF0.43362878146737127
aa(lp1095
F-1.5256402933396407
aF0.4831375681304326
aa(lp1096
F-1.547290659635369
aF0.5295937549594073
aa(lp1097
F-1.5766754249045745
aF0.5715872214214833
aa(lp1098
F-1.612902650663143
aF0.6078433073832297
aa(lp1099
F-1.654872703936955
aF0.6372615038544815
aa(lp1100
F-1.7013116352711735
aF0.6589488575880187
aa(lp1101
F-1.7508098479023504
aF0.672247075579411
aa(lp1102
F-1.801864884338104
aF0.6767525067432065
aa(lp1103
F-1.8529270316102437
aF0.6723283942462059
aa(lp1104
F-1.902446360909869
aF0.6591090265932853
aa(lp1105
F-1.9489197737740442
aF0.6374956614646495
aa(lp1106
F-1.9909366267948014
aF0.6081443460314377
aa(lp1107
F-2.0272215499684245
aF0.5719460034490473
aa(lp1108
F-2.0566731589865754
aF0.5299993899782346
aa(lp1109
F-2.0783974864051826
aF0.48357774358738626
aa(lp1110
F-2.091735116928985
aF0.43409013637670824
aa(lp1111
F-2.0962812031534828
aF0.3830387039240606
aa(lp1112
F-2.0918977542110078
aF0.33197304980314957
aa(lp1113
F-2.078717824314147
aF0.2824432092689661
aa(lp1114
F-2.0571414740584237
aF0.23595259984007
aa(lp1115
F-2.027823627073941
aF0.19391238690504467
aa(lp1116
F-1.9916541906224128
aF0.1575986495291332
aa(lp1117
F-1.9497310435544708
aF0.12811364664041797
aa(lp1118
F-1.903326711544645
aF0.1063523593129263
aa(lp1119
F-1.853849741136356
aF0.09297532471458975
aa(lp1120
F-1.802801945040382
aF0.08838858631222779
aa(lp1121
F-1.7517328164532862
aF0.09273136892047318
aa(lp1122
F-1.7021924960932162
aF0.10587185270340244
aa(lp1123
F-1.6556847195809832
aF0.1274111744038653
aa(lp1124
F-1.6136211733909163
aF0.15669553434810699
aa(lp1125
F-1.5772786448405764
aF0.19283604173241928
aa(lp1126
F-1.5477602667788086
aF0.23473569581249948
aa(lp1127
F-1.5259620333420554
aF0.2811226840146302
aa(lp1128
F-1.5125456031520483
aF0.33058898624538596
aasg44
((lp1129
F-1.8022479636969904
aF0.3825834251863814
aF0.2943312409278031
tp1130
sbsg47
(imodels.polygon
Polygon
p1131
(dp1132
g6
g1092
sg44
((lp1133
F-1.8022479636969904
aF0.3825834251863814
aF0.2943312409278031
tp1134
sbsg52
(imodels.pose
Pose
p1135
(dp1136
g55
F0.38257017342436545
sg56
F-1.8020991496622296
sg57
F1.547194693881587
sbsg58
F0.2941824265947233
sg55
F0.38257017342436545
sg56
F-1.8020991496622296
sba(imodels.circular_obstacle
CircularObstacle
p1137
(dp1138
g3
(imodels.polygon
Polygon
p1139
(dp1140
g6
(lp1141
(lp1142
F-2.157427333380425
aF-0.03134301619214306
aa(lp1143
F-2.158491918231898
aF-0.01916855230237157
aa(lp1144
F-2.161653358619777
aF-0.007363629321546071
aa(lp1145
F-2.166815692901308
aF0.003713428802119431
aa(lp1146
F-2.1738222247554084
aF0.013726391564799115
aa(lp1147
F-2.1824602795071715
aF0.022371327771323765
aa(lp1148
F-2.1924676596065944
aF0.029385830993577597
aa(lp1149
F-2.2035406033133995
aF0.03455698459555711
aa(lp1150
F-2.2153430050118343
aF0.03772782455653196
aa(lp1151
F-2.227516617284118
aF0.038802103921243176
aa(lp1152
F-2.2396919250711074
aF0.03774721425810052
aa(lp1153
F-2.251499361848393
aF0.034595175448101236
aa(lp1154
F-2.262580527364554
aF0.029441663760642153
aa(lp1155
F-2.272599066440907
aF0.022443107717791323
aa(lp1156
F-2.281250878620125
aF0.01381193989849435
aa(lp1157
F-2.288273348762381
aF0.0038101488083714594
aa(lp1158
F-2.2934533184055925
aF-0.0072586734598169
aa(lp1159
F-2.2966335559289184
aF-0.01905854639152964
aa(lp1160
F-2.297717529125628
aF-0.031231299326595324
aa(lp1161
F-2.2966723353197596
aF-0.04340744328999807
aa(lp1162
F-2.2935297000864625
aF-0.055217386376218924
aa(lp1163
F-2.2883850142611046
aF-0.06630265225790599
aa(lp1164
F-2.281394438467542
aF-0.07632676129481267
aa(lp1165
F-2.2727701630540484
aF-0.08498544396029595
aa(lp1166
F-2.2627739673157246
aF-0.09201587656935029
aa(lp1167
F-2.251709273505295
aF-0.0972046589689868
aa(lp1168
F-2.2399119368230327
aF-0.10039429203795924
aa(lp1169
F-2.2277400509443694
aF-0.10148795837928115
aa(lp1170
F-2.215563078525889
aF-0.10045246109348208
aa(lp1171
F-2.203750636619847
aF-0.09731923142974638
aa(lp1172
F-2.1926612774022036
aF-0.09218337472892162
aa(lp1173
F-2.182631604761395
aF-0.08520078361762556
aa(lp1174
F-2.173966057100432
aF-0.07658340607890118
aa(lp1175
F-2.166927666482832
aF-0.06659281203132747
aa(lp1176
F-2.1617300746171657
aF-0.05553225369518114
aa(lp1177
F-2.1585310480252087
aF-0.04373746074348895
aasg44
((lp1178
F-2.227607959096996
aF-0.03133985642918981
aF0.0701806257877026
tp1179
sbsg47
(imodels.polygon
Polygon
p1180
(dp1181
g6
g1141
sg44
((lp1182
F-2.227607959096996
aF-0.03133985642918981
aF0.0701806257877026
tp1183
sbsg52
(imodels.pose
Pose
p1184
(dp1185
g55
F-0.03134301619214306
sg56
F-2.2275724757346027
sg57
F-2.1003080713763875
sbsg58
F0.07014514235417783
sg55
F-0.03134301619214306
sg56
F-2.2275724757346027
sba(imodels.circular_obstacle
CircularObstacle
p1186
(dp1187
g3
(imodels.polygon
Polygon
p1188
(dp1189
g6
(lp1190
(lp1191
F3.736423087926085
aF-3.568431650329287
aa(lp1192
F3.7337240739498716
aF-3.537566052208167
aa(lp1193
F3.7257089572778233
aF-3.5076373414348687
aa(lp1194
F3.7126210269391007
aF-3.4795539672916673
aa(lp1195
F3.6948575509955575
aF-3.45416836613232
aa(lp1196
F3.6729577179573116
aF-3.4322510867227938
aa(lp1197
F3.6475862703772997
aF-3.4144674011792118
aa(lp1198
F3.6195133274069593
aF-3.4013571114492978
aa(lp1199
F3.589591008774598
aF-3.3933181642867813
aa(lp1200
F3.5587275697368983
aF-3.390594572066113
aa(lp1201
F3.5278598321053547
aF-3.393269006086328
aa(lp1202
F3.497924748170002
aF-3.4012602871852313
aa(lp1203
F3.4698309606626276
aF-3.41432584983323
aa(lp1204
F3.444431222021877
aF-3.4320691049122694
aa(lp1205
F3.4224965101396134
aF-3.453951477691755
aa(lp1206
F3.404692626273274
aF-3.479308755603475
aa(lp1207
F3.391559985465879
aF-3.5073712495988816
aa(lp1208
F3.383497212910683
aF-3.5372871571154767
aa(lp1209
F3.3807490441726884
aF-3.568148417498128
aa(lp1210
F3.3833988965409496
aF-3.599018275065741
aa(lp1211
F3.3913663369991465
aF-3.6289597131802234
aa(lp1212
F3.4044095236710734
aF-3.657063896236479
aa(lp1213
F3.422132546633966
aF-3.682477756251736
aa(lp1214
F3.443997445278284
aF-3.7044298866971395
aa(lp1215
F3.4693405374417408
aF-3.7222539575961466
aa(lp1216
F3.4973925646667663
aF-3.7354089411531373
aa(lp1217
F3.527302042096831
aF-3.7434955339881166
aa(lp1218
F3.5581611042541876
aF-3.746268277500724
aa(lp1219
F3.5890330621821716
aF-3.743643008464784
aa(lp1220
F3.61898083548883
aF-3.7356994136997375
aa(lp1221
F3.6470953962720847
aF-3.722678611275041
aa(lp1222
F3.672523361545996
aF-3.7049758316671073
aa(lp1223
F3.6944928966338955
aF-3.683128421023284
aa(lp1224
F3.7123371432626793
aF-3.657799530679066
aa(lp1225
F3.7255144612272133
aF-3.6297579880132305
aa(lp1226
F3.7336248692139726
aF-3.5998549596363825
aasg44
((lp1227
F3.558495993240924
aF-3.5684236394653714
aF0.17792709486549874
tp1228
sbsg47
(imodels.polygon
Polygon
p1229
(dp1230
g6
g1190
sg44
((lp1231
F3.558495993240924
aF-3.5684236394653714
aF0.17792709486549874
tp1232
sbsg52
(imodels.pose
Pose
p1233
(dp1234
g55
F-3.568431650329287
sg56
F3.5585859532764164
sg57
F1.0962691394770445
sbsg58
F0.1778371346496684
sg55
F-3.568431650329287
sg56
F3.5585859532764164
sba(imodels.circular_obstacle
CircularObstacle
p1235
(dp1236
g3
(imodels.polygon
Polygon
p1237
(dp1238
g6
(lp1239
(lp1240
F-0.3597674896839992
aF-1.701673912047607
aa(lp1241
F-0.3635448966015452
aF-1.6584759423874051
aa(lp1242
F-0.37476245880343245
aF-1.6165891940768564
aa(lp1243
F-0.39307968095698953
aF-1.5772850879508842
aa(lp1244
F-0.41794056626553794
aF-1.5417566519107253
aa(lp1245
F-0.44859049306874804
aF-1.5110823080262619
aa(lp1246
F-0.48409912045694714
aF-1.4861931383576994
aa(lp1247
F-0.5233886276275712
aF-1.4678446231024007
aa(lp1248
F-0.5652664298127547
aF-1.45659370892074
aa(lp1249
F-0.60846137772623
aF-1.4527819035037997
aa(lp1250
F-0.6516623417397567
aF-1.4565249095265602
aa(lp1251
F-0.6935580096137615
aF-1.4677091126352102
aa(lp1252
F-0.7328766897709202
aF-1.4859950300714098
aa(lp1253
F-0.7684249119331666
aF-1.5108276152547535
aa(lp1254
F-0.7991236534471675
aF-1.541453105540478
aa(lp1255
F-0.8240410916926173
aF-1.5769419017594068
aa(lp1256
F-0.8424208884141975
aF-1.6162167850597788
aa(lp1257
F-0.8537051474410184
aF-1.6580856145633613
aa(lp1258
F-0.8575513489401488
aF-1.7012775133386242
aa(lp1259
F-0.8538427461857496
aF-1.7444814443101748
aa(lp1260
F-0.8426919092626466
aF-1.7863860051800706
aa(lp1261
F-0.8244373081395693
aF-1.8257192344350124
aa(lp1262
F-0.7996330388286746
aF-1.8612872201769273
aa(lp1263
F-0.7690320044811716
aF-1.8920103398532784
aa(lp1264
F-0.7335630619362482
aF-1.9169560308745626
aa(lp1265
F-0.6943028274117586
aF-1.9353670974071273
aa(lp1266
F-0.6524429971403229
aF-1.9466846941233498
aa(lp1267
F-0.6092541748928249
aF-1.9505652892656542
aa(lp1268
F-0.5660473043604326
aF-1.9468910921313762
aa(lp1269
F-0.52413387706785
aF-1.9357736284649707
aa(lp1270
F-0.484786123657755
aF-1.9175503552309214
aa(lp1271
F-0.4491983968911236
aF-1.8927744175217642
aa(lp1272
F-0.4184509185350688
aF-1.8621978585177104
aa(lp1273
F-0.393476990556919
aF-1.8267487921389374
aa(lp1274
F-0.3750346658884959
aF-1.7875032312866712
aa(lp1275
F-0.36368373865977116
aF-1.7456524267922218
aasg44
((lp1276
F-0.6087854807748025
aF-1.7016627004373526
aF0.24901799134319516
tp1277
sbsg47
(imodels.polygon
Polygon
p1278
(dp1279
g6
g1239
sg44
((lp1280
F-0.6087854807748025
aF-1.7016627004373526
aF0.24901799134319516
tp1281
sbsg52
(imodels.pose
Pose
p1282
(dp1283
g55
F-1.701673912047607
sg56
F-0.6086595771435641
sg57
F-1.582935819396122
sbsg58
F0.24889208745956493
sg55
F-1.701673912047607
sg56
F-0.6086595771435641
sba(imodels.circular_obstacle
CircularObstacle
p1284
(dp1285
g3
(imodels.polygon
Polygon
p1286
(dp1287
g6
(lp1288
(lp1289
F-0.7574866328427956
aF0.49775064536392527
aa(lp1290
F-0.7637700802814209
aF0.5696073919999336
aa(lp1291
F-0.782429696262338
aF0.6392830152857727
aa(lp1292
F-0.8128990910444787
aF0.7046625971935482
aa(lp1293
F-0.8542534035460925
aF0.763761620758615
aa(lp1294
F-0.9052373743677473
aF0.8147862076563265
aa(lp1295
F-0.9643034476507463
aF0.8561875691768475
aa(lp1296
F-1.0296587452358126
aF0.8867090178055228
aa(lp1297
F-1.099319487279112
aF0.9054241124299791
aa(lp1298
F-1.1711712074546028
aF0.9117647793230159
aa(lp1299
F-1.2430329349841551
aF0.9055385553233644
aa(lp1300
F-1.3127233953286899
aF0.8869344298187272
aa(lp1301
F-1.3781272200996062
aF0.8565171082048711
aa(lp1302
F-1.4372591564699029
aF0.8152098709464365
aa(lp1303
F-1.4883243270871267
aF0.7642665485316265
aa(lp1304
F-1.5297727113724475
aF0.7052334629866386
aa(lp1305
F-1.5603461944928978
aF0.6399024911684499
aa(lp1306
F-1.5791167558929722
aF0.5702566745420974
aa(lp1307
F-1.585514638219573
aF0.49841002639091053
aa(lp1308
F-1.5793456416071703
aF0.4265433635379465
aa(lp1309
F-1.5607970183763644
aF0.3568381103279689
aa(lp1310
F-1.5304317892195223
aF0.29141008416885344
aa(lp1311
F-1.4891716533986865
aF0.2322452724910356
aa(lp1312
F-1.4382690116957328
aF0.18113955053657937
aa(lp1313
F-1.3792689513237801
aF0.1396441697703853
aa(lp1314
F-1.3139623467012118
aF0.1090186715459161
aa(lp1315
F-1.2443314996567492
aF0.09019265527331893
aa(lp1316
F-1.1724899690904358
aF0.08373756157028328
aa(lp1317
F-1.1006184164873218
aF0.0898493268834526
aa(lp1318
F-1.0308984146145352
aF0.10834243607807093
aa(lp1319
F-0.9654462285575085
aF0.13865555352220482
aa(lp1320
F-0.9062485790907264
aF0.17986856174089044
aa(lp1321
F-0.8551023382070329
aF0.23073049045277305
aa(lp1322
F-0.813559987273694
aF0.2896974882376087
aa(lp1323
F-0.7828824933659471
aF0.3549796842512662
aa(lp1324
F-0.7640010341590879
aF0.42459551755838937
aasg44
((lp1325
F-1.1717103297982785
aF0.49776929507926543
aF0.4142236973753187
tp1326
sbsg47
(imodels.polygon
Polygon
p1327
(dp1328
g6
g1288
sg44
((lp1329
F-1.1717103297982785
aF0.49776929507926543
aF0.4142236973753187
tp1330
sbsg52
(imodels.pose
Pose
p1331
(dp1332
g55
F0.49775064536392527
sg56
F-1.1715008980726298
sg57
F-1.4160897125486844
sbsg58
F0.4140142652298342
sg55
F0.49775064536392527
sg56
F-1.1715008980726298
sba(imodels.circular_obstacle
CircularObstacle
p1333
(dp1334
g3
(imodels.polygon
Polygon
p1335
(dp1336
g6
(lp1337
(lp1338
F-2.1206848111987218
aF-3.4094739985914724
aa(lp1339
F-2.122330882268289
aF-3.390649728484006
aa(lp1340
F-2.1272191310099924
aF-3.3723968459915294
aa(lp1341
F-2.13520118063291
aF-3.355269394959277
aa(lp1342
F-2.1460347458175724
aF-3.3397872581418158
aa(lp1343
F-2.1593909869894636
aF-3.3264203768001117
aa(lp1344
F-2.174864491840703
aF-3.315574486211341
aa(lp1345
F-2.191985581123065
aF-3.3075788000725335
aa(lp1346
F-2.210234565185092
aF-3.3026760176228613
aa(lp1347
F-2.229057518513621
aF-3.3010149568061142
aa(lp1348
F-2.247883093462871
aF-3.302646037084668
aa(lp1349
F-2.2661398628109812
aF-3.307519749018587
aa(lp1350
F-2.2832736647319853
aF-3.315488157063907
aa(lp1351
F-2.2987644236978833
aF-3.3263093899745035
aa(lp1352
F-2.3121419367329747
aF-3.3396549825069046
aa(lp1353
F-2.3230001458480802
aF-3.355119845579611
aa(lp1354
F-2.331009463432423
aF-3.3722345622549774
aa(lp1355
F-2.335926776481031
aF-3.3904796363142107
aa(lp1356
F-2.337602825991619
aF-3.409301260927484
aa(lp1357
F-2.335986737538406
aF-3.4281281287805365
aa(lp1358
F-2.3311275655028694
aF-3.446388773407
aa(lp1359
F-2.323172804088204
aF-3.4635289153515894
aa(lp1360
F-2.31236391031381
aF-3.4790282866426705
aa(lp1361
F-2.2990289748838246
aF-3.4924164228879824
aa(lp1362
F-2.2835727633964833
aF-3.5032869436438383
aa(lp1363
F-2.2664644301811756
aF-3.5113098875947166
aa(lp1364
F-2.2482232776946
aF-3.516241728124014
aa(lp1365
F-2.2294029937320587
aF-3.517932765265599
aa(lp1366
F-2.210574844914004
aF-3.516331669662547
aa(lp1367
F-2.192310336588926
aF-3.5114870406067706
aa(lp1368
F-2.175163865489938
aF-3.503545930867163
aa(lp1369
F-2.1596558917023883
aF-3.4927493830832836
aa(lp1370
F-2.146257140736759
aF-3.4794251132118807
aa(lp1371
F-2.135374315233545
aF-3.4639775631112495
aa(lp1372
F-2.127337750003772
aF-3.4468756242050165
aa(lp1373
F-2.122391385121244
aF-3.4286384048584764
aasg44
((lp1374
F-2.229198752080314
aF-3.409469112936396
aF0.10851394099157632
tp1375
sbsg47
(imodels.polygon
Polygon
p1376
(dp1377
g6
g1337
sg44
((lp1378
F-2.229198752080314
aF-3.409469112936396
aF0.10851394099157632
tp1379
sbsg52
(imodels.pose
Pose
p1380
(dp1381
g55
F-3.4094739985914724
sg56
F-2.229143887373
sg57
F-0.459766768974311
sbsg58
F0.10845907617427847
sg55
F-3.4094739985914724
sg56
F-2.229143887373
sba(imodels.circular_obstacle
CircularObstacle
p1382
(dp1383
g3
(imodels.polygon
Polygon
p1384
(dp1385
g6
(lp1386
(lp1387
F-2.341450489060401
aF1.2418026400800133
aa(lp1388
F-2.3493576526974764
aF1.3322280092151288
aa(lp1389
F-2.372839131361421
aF1.4199086272544656
aa(lp1390
F-2.411182173587577
aF1.5021830566529648
aa(lp1391
F-2.4632229233898153
aF1.5765539580864298
aa(lp1392
F-2.527381747680531
aF1.6407638941215836
aa(lp1393
F-2.6017111840942366
aF1.69286385095867
aa(lp1394
F-2.6839550538174377
aF1.731272398353208
aa(lp1395
F-2.7716169451273744
aF1.7548236919900817
aa(lp1396
F-2.8620359889058737
aF1.7628028612568176
aa(lp1397
F-2.9524676260555935
aF1.7549677082636221
aa(lp1398
F-3.040166915222865
aF1.731556059463065
aa(lp1399
F-3.1224718521234576
aF1.6932785467200075
aa(lp1400
F-3.1968841714153915
aF1.6412970369535471
aa(lp1401
F-3.261145178477131
aF1.5771893650927118
aa(lp1402
F-3.313304309310589
aF1.5029014408337613
aa(lp1403
F-3.351778337517254
aF1.4206881829396838
aa(lp1404
F-3.375399431192326
aF1.3330450739487376
aa(lp1405
F-3.3834506010288408
aF1.2426324128648552
aa(lp1406
F-3.375687463648081
aF1.1521945650465175
aa(lp1407
F-3.352345659557088
aF1.064476660364616
aa(lp1408
F-3.3141337005702907
aF0.9821412681544817
aa(lp1409
F-3.262211463802972
aF0.9076875781916338
aa(lp1410
F-3.198154985025021
aF0.8433755408535488
aa(lp1411
F-3.123908620029497
aF0.7911572690997178
aa(lp1412
F-3.041726026098957
aF0.752617784478705
aa(lp1413
F-2.954101755004681
aF0.7289269057444288
aa(lp1414
F-2.863695533949368
aF0.7208037404436739
aa(lp1415
F-2.7732515328123375
aF0.7284948572891113
aa(lp1416
F-2.6855150682409175
aF0.751766801868653
aa(lp1417
F-2.6031492729331034
aF0.7899131828675992
aa(lp1418
F-2.5286542595131323
aF0.8417761137099997
aa(lp1419
F-2.4642912326813002
aF0.9057813587845268
aa(lp1420
F-2.4120138531206003
aF0.9799861174343056
aa(lp1421
F-2.373408936524527
aF1.06213799528634
aa(lp1422
F-2.349648287754293
aF1.1497433729182123
aasg44
((lp1423
F-2.8627144267592164
aF1.2418261090995952
aF0.5212639382271419
tp1424
sbsg47
(imodels.polygon
Polygon
p1425
(dp1426
g6
g1386
sg44
((lp1427
F-2.8627144267592164
aF1.2418261090995952
aF0.5212639382271419
tp1428
sbsg52
(imodels.pose
Pose
p1429
(dp1430
g55
F1.2418026400800133
sg56
F-2.862450875429842
sg57
F-0.3456748501087202
sbsg58
F0.5210003863694409
sg55
F1.2418026400800133
sg56
F-2.862450875429842
sba(imodels.circular_obstacle
CircularObstacle
p1431
(dp1432
g3
(imodels.polygon
Polygon
p1433
(dp1434
g6
(lp1435
(lp1436
F-2.8685829078634124
aF4.0467276961212315
aa(lp1437
F-2.8764475859248924
aF4.136667205340902
aa(lp1438
F-2.899802897459554
aF4.223876711146202
aa(lp1439
F-2.9379399206510945
aF4.305709076025715
aa(lp1440
F-2.9897010529683232
aF4.3796803789811465
aa(lp1441
F-3.053515148769201
aF4.443545311900569
aa(lp1442
F-3.1274452094984446
aF4.495365333130361
aa(lp1443
F-3.2092471789012844
aF4.533567509527822
aa(lp1444
F-3.2964380585968147
aF4.55699226091616
aa(lp1445
F-3.386371276446318
aF4.564928557717543
aa(lp1446
F-3.4763170200022446
aF4.557135503383243
aa(lp1447
F-3.5635450966146
aF4.533849646512711
aa(lp1448
F-3.64540780507791
aF4.495777800711162
aa(lp1449
F-3.719420303351638
aF4.444075590130112
aa(lp1450
F-3.7833360328905306
aF4.3803123719146155
aa(lp1451
F-3.835214910171929
aF4.3064236002932965
aa(lp1452
F-3.873482215549922
aF4.22465207824073
aa(lp1453
F-3.896976391937451
aF4.137479879945875
aa(lp1454
F-3.904984302446042
aF4.047553010496459
aa(lp1455
F-3.897262876780783
aF3.9576010896421403
aa(lp1456
F-3.8740464893407864
aF3.870354497537223
aa(lp1457
F-3.83603984507197
aF3.788461497402233
aa(lp1458
F-3.7843965890133484
aF3.714407850744222
aa(lp1459
F-3.7206842888178064
aF3.6504413651171457
aa(lp1460
F-3.6468368531599666
aF3.598503664682422
aa(lp1461
F-3.5650958303119675
aF3.560171254590586
aa(lp1462
F-3.4779423686968456
aF3.536607668102377
aa(lp1463
F-3.3880219046734124
aF3.5285281489646834
aa(lp1464
F-3.2980638635624815
aF3.5361779410644667
aa(lp1465
F-3.210798811291236
aF3.5593248443515724
aa(lp1466
F-3.1288755714158922
aF3.597266262986262
aa(lp1467
F-3.054780823333707
aF3.6488505317735904
aa(lp1468
F-2.9907636221819187
aF3.7125118735468936
aa(lp1469
F-2.938767131529453
aF3.7863179264119124
aa(lp1470
F-2.900369641031747
aF3.8680283982203925
aa(lp1471
F-2.8767366593853843
aF3.9551630678886047
aasg44
((lp1472
F-3.3870460690200077
aF4.046751039040628
aF0.5184631616820831
tp1473
sbsg47
(imodels.polygon
Polygon
p1474
(dp1475
g6
g1435
sg44
((lp1476
F-3.3870460690200077
aF4.046751039040628
aF0.5184631616820831
tp1477
sbsg52
(imodels.pose
Pose
p1478
(dp1479
g55
F4.0467276961212315
sg56
F-3.3867839337647725
sg57
F2.6930051754956246
sbsg58
F0.5182010259013601
sg55
F4.0467276961212315
sg56
F-3.3867839337647725
sba(imodels.circular_obstacle
CircularObstacle
p1480
(dp1481
g3
(imodels.polygon
Polygon
p1482
(dp1483
g6
(lp1484
(lp1485
F5.635973564369851
aF2.025921274803112
aa(lp1486
F5.633615158692421
aF2.0528917175231793
aa(lp1487
F5.626611528169861
aF2.079043505556873
aa(lp1488
F5.615175259410721
aF2.1035828334760414
aa(lp1489
F5.599653486316786
aF2.1257648401002434
aa(lp1490
F5.580517353259546
aF2.1449162178436687
aa(lp1491
F5.558347714071065
aF2.1604556501405168
aa(lp1492
F5.53381750093882
aF2.1719114565958657
aa(lp1493
F5.507671298375083
aF2.1789359102651416
aa(lp1494
F5.480702742267921
aF2.1813157924787343
aa(lp1495
F5.453730430037886
aF2.1789788648330184
aa(lp1496
F5.427573073118035
aF2.1719960618984318
aa(lp1497
F5.403024645973223
aF2.1605793380876537
aa(lp1498
F5.380830285979716
aF2.1450752340395507
aa(lp1499
F5.361663675694689
aF2.125954357803414
aa(lp1500
F5.346106594049047
aF2.1037971001092273
aa(lp1501
F5.334631257162033
aF2.0792760173194056
aa(lp1502
F5.327585984800502
aF2.0531354168058824
aa(lp1503
F5.325184627559915
aF2.0261687644133652
aa(lp1504
F5.3275000756919875
aF1.9991945997774874
aa(lp1505
F5.334462046610552
aF1.9730316905588086
aa(lp1506
F5.345859218233208
aF1.9484741797554013
aa(lp1507
F5.361345643403763
aF1.9262674804668403
aa(lp1508
F5.380451250693555
aF1.9070856497944557
aa(lp1509
F5.4025961128427245
aF1.8915109286653309
aa(lp1510
F5.427108049740414
aF1.8800160686235785
aa(lp1511
F5.453243031627019
aF1.8729499820374556
aa(lp1512
F5.480207763204357
aF1.8705271512926644
aa(lp1513
F5.50718376314078
aF1.8728211184427819
aa(lp1514
F5.533352208067435
aF1.8797622529304858
aa(lp1515
F5.557918786956628
aF1.8911398651376603
aa(lp1516
F5.580137811458168
aF1.9066086016101618
aa(lp1517
F5.599334850354015
aF1.925698927838048
aa(lp1518
F5.614927201090126
aF1.9478313803993403
aa(lp1519
F5.6264415769973075
aF1.972334155860987
aa(lp1520
F5.633528473327161
aF1.9984635025475326
aasg44
((lp1521
F5.4805003901023985
aF2.0259282747175646
aF0.15547317442503225
tp1522
sbsg47
(imodels.polygon
Polygon
p1523
(dp1524
g6
g1484
sg44
((lp1525
F5.4805003901023985
aF2.0259282747175646
aF0.15547317442503225
tp1526
sbsg52
(imodels.pose
Pose
p1527
(dp1528
g55
F2.025921274803112
sg56
F5.480578997423558
sg57
F-1.0458937139553663
sbsg58
F0.15539456694629256
sg55
F2.025921274803112
sg56
F5.480578997423558
sba(imodels.circular_obstacle
CircularObstacle
p1529
(dp1530
g3
(imodels.polygon
Polygon
p1531
(dp1532
g6
(lp1533
(lp1534
F-3.745329620158867
aF2.570079699272318
aa(lp1535
F-3.754654149084655
aF2.67671388680474
aa(lp1536
F-3.782344701231014
aF2.780111324452959
aa(lp1537
F-3.827560763873767
aF2.877133509902856
aa(lp1538
F-3.8889298589276984
aF2.964835453796074
aa(lp1539
F-3.964589202834308
aF3.040555071267433
aa(lp1540
F-4.052242249070426
aF3.1019939862636834
aa(lp1541
F-4.1492283969992405
aF3.1472872959276703
aa(lp1542
F-4.252603751137115
aF3.175060177435657
aa(lp1543
F-4.359230479487782
aF3.184469619056743
aa(lp1544
F-4.465872058581346
aF3.175230008739276
aa(lp1545
F-4.569291514171838
aF3.1476218035141303
aa(lp1546
F-4.666349675617526
aF3.1024830165657584
aa(lp1547
F-4.754100461552854
aF3.041183780370519
aa(lp1548
F-4.829880304572402
aF2.9655847580069974
aa(lp1549
F-4.8913890005503236
aF2.8779806650119597
aa(lp1550
F-4.93675952851341
aF2.7810306161066687
aa(lp1551
F-4.964614721771232
aF2.677677411033207
aa(lp1552
F-4.974109070120748
aF2.571058209480177
aa(lp1553
F-4.964954384270774
aF2.46440930645077
aa(lp1554
F-4.937428543474208
aF2.3609678985000384
aa(lp1555
F-4.892367060844362
aF2.2638738226066675
aa(lp1556
F-4.831137722379887
aF2.17607425027519
aa(lp1557
F-4.7555990694995405
aF2.1002342297622043
aa(lp1558
F-4.668043985298521
aF2.0386557918075106
aa(lp1559
F-4.571130096896301
aF1.9932080743164238
aa(lp1560
F-4.467799106427275
aF1.965270586972757
aa(lp1561
F-4.361187499282991
aF1.9556913379155232
aa(lp1562
F-4.254531339947685
aF1.9647610934926854
aa(lp1563
F-4.15106804523267
aF1.992204552405537
aa(lp1564
F-4.053938116462495
aF2.0371887021417328
aa(lp1565
F-3.9660898134117675
aF2.098348104047696
aa(lp1566
F-3.8901896634982567
aF2.173826339543063
aa(lp1567
F-3.8285415226159154
aF2.2613323594282035
aa(lp1568
F-3.783016644416877
aF2.3582100258707346
aa(lp1569
F-3.7549968807035414
aF2.461518736209391
aasg44
((lp1570
F-4.3600305278588785
aF2.570107375132083
aF0.614700908323041
tp1571
sbsg47
(imodels.polygon
Polygon
p1572
(dp1573
g6
g1533
sg44
((lp1574
F-4.3600305278588785
aF2.570107375132083
aF0.614700908323041
tp1575
sbsg52
(imodels.pose
Pose
p1576
(dp1577
g55
F2.570079699272318
sg56
F-4.359719734746839
sg57
F0.4449624407784718
sbsg58
F0.6143901145879718
sg55
F2.570079699272318
sg56
F-4.359719734746839
sba(imodels.circular_obstacle
CircularObstacle
p1578
(dp1579
g3
(imodels.polygon
Polygon
p1580
(dp1581
g6
(lp1582
(lp1583
F0.14059316980339656
aF1.304199340644933
aa(lp1584
F0.13989569926363
aF1.3121755295685489
aa(lp1585
F0.13782445850651875
aF1.3199096110670292
aa(lp1586
F0.13444231750309066
aF1.327166826588976
aa(lp1587
F0.12985193699240624
aF1.3337268922644234
aa(lp1588
F0.12419265234082622
aF1.3393906853513435
aa(lp1589
F0.1176362441879799
aF1.343986288362086
aa(lp1590
F0.11038172425628567
aF1.3473742074077104
aa(lp1591
F0.10264929459437563
aF1.3494516063637774
aa(lp1592
F0.09467366361417613
aF1.350155428334688
aa(lp1593
F0.08669692180513511
aF1.349464309668357
aa(lp1594
F0.07896119337454657
aF1.3473992284236505
aa(lp1595
F0.07170128686441135
aF1.3440228676071573
aa(lp1596
F0.06513756782633888
aF1.339437712507458
aa(lp1597
F0.05946926989569546
aF1.333782939879976
aa(lp1598
F0.05486844729913388
aF1.3272301934073873
aa(lp1599
F0.05147475235971546
aF1.3199783736663002
aa(lp1600
F0.04939119652204693
aF1.312247600744375
aa(lp1601
F0.04868102356631141
aF1.3042725327652294
aa(lp1602
F0.04936578992094364
aF1.2962952431291048
aa(lp1603
F0.05142471034370237
aF1.2885578726719147
aa(lp1604
F0.05479528883218759
aF1.2812952797773614
aa(lp1605
F0.05937521561328848
aF1.2747279115389565
aa(lp1606
F0.06502547263077536
aF1.2690551123590634
aa(lp1607
F0.07157455326777173
aF1.2644490730942315
aa(lp1608
F0.07882366821960926
aF1.2610496044130846
aa(lp1609
F0.08655277949918562
aF1.258959893015073
aa(lp1610
F0.09452727941999735
aF1.258243369524859
aa(lp1611
F0.10250511182451597
aF1.258921783133557
aa(lp1612
F0.11024411940176032
aF1.2609745414287317
aa(lp1613
F0.11750939407525757
aF1.2643393354518027
aa(lp1614
F0.12408040734938804
aF1.268914031010007
aa(lp1615
F0.1297577041812025
aF1.2745597688344659
aa(lp1616
F0.13436895719344807
aF1.2811051794828598
aa(lp1617
F0.13777419746059713
aF1.2883515850485208
aa(lp1618
F0.13987006309378996
aF1.296079029784438
aasg44
((lp1619
F0.09461382035842893
aF1.3042014107867066
aF0.04597934949156993
tp1620
sbsg47
(imodels.polygon
Polygon
p1621
(dp1622
g6
g1582
sg44
((lp1623
F0.09461382035842893
aF1.3042014107867066
aF0.04597934949156993
tp1624
sbsg52
(imodels.pose
Pose
p1625
(dp1626
g55
F1.304199340644933
sg56
F0.09463706754242454
sg57
F3.0794427938791955
sbsg58
F0.04595610226097202
sg55
F1.304199340644933
sg56
F0.09463706754242454
sba(imodels.circular_obstacle
CircularObstacle
p1627
(dp1628
g3
(imodels.polygon
Polygon
p1629
(dp1630
g6
(lp1631
(lp1632
F3.2390924152436025
aF-0.5035581965355679
aa(lp1633
F3.23134365419525
aF-0.4149443002894176
aa(lp1634
F3.2083325751813074
aF-0.32902017010282747
aa(lp1635
F3.1707576512624085
aF-0.24839392748792627
aa(lp1636
F3.11975942313622
aF-0.17551288308200963
aa(lp1637
F3.0568858794244194
aF-0.1125892515368721
aa(lp1638
F2.9840454693780183
aF-0.06153300245823162
aa(lp1639
F2.9034491742427027
aF-0.02389388562256456
aa(lp1640
F2.8175433956367804
aF-0.0008143902247391699
aa(lp1641
F2.7289356980326733
aF0.007004933979251393
aa(lp1642
F2.640315659337771
aF-0.0006732589996932825
aa(lp1643
F2.5543732320581256
aF-0.023615907037590478
aa(lp1644
F2.4737170930916688
aF-0.061126614212096975
aa(lp1645
F2.400795460542754
aF-0.11206678904600431
aa(lp1646
F2.337821781066441
aF-0.17489020505407044
aa(lp1647
F2.286707543411971
aF-0.24768993455020477
aa(lp1648
F2.2490042575278673
aF-0.32825623109689656
aa(lp1649
F2.2258563603817048
aF-0.4141436036461757
aa(lp1650
F2.2179664779805943
aF-0.5027450464188791
aa(lp1651
F2.2255740980211094
aF-0.5913711713653478
aa(lp1652
F2.2484483005341955
aF-0.6773318412388329
aa(lp1653
F2.285894767177407
aF-0.7580178254098572
aa(lp1654
F2.3367768564160176
aF-0.8309799998595132
aa(lp1655
F2.399550104881738
aF-0.8940036873331041
aa(lp1656
F2.472309107662653
aF-0.9451758811500086
aa(lp1657
F2.5528453545307053
aF-0.9829433121735255
aa(lp1658
F2.6387142665590377
aF-1.0061595963891024
aa(lp1659
F2.7273093983149437
aF-1.0141200319840717
aa(lp1660
F2.815941553311933
aF-1.0065829897062541
aa(lp1661
F2.901920411268474
aF-0.9837772472233426
aa(lp1662
F2.982636189478152
aF-0.9463950448575904
aa(lp1663
F3.0556388595605837
aF-0.895571073480458
aa(lp1664
F3.1187125150658424
aF-0.8328480323638803
aa(lp1665
F3.169942632595034
aF-0.7601298024373122
aa(lp1666
F3.2077741848082644
aF-0.6796236563188599
aa(lp1667
F3.2310588413709658
aF-0.5937732592640707
aasg44
((lp1668
F2.728270851185815
aF-0.5035351976660458
aF0.51082156457553
tp1669
sbsg47
(imodels.polygon
Polygon
p1670
(dp1671
g6
g1631
sg44
((lp1672
F2.728270851185815
aF-0.5035351976660458
aF0.51082156457553
tp1673
sbsg52
(imodels.pose
Pose
p1674
(dp1675
g55
F-0.5035581965355679
sg56
F2.728529122845417
sg57
F-2.2110059238403346
sbsg58
F0.5105632923981858
sg55
F-0.5035581965355679
sg56
F2.728529122845417
sba(imodels.circular_obstacle
CircularObstacle
p1676
(dp1677
g3
(imodels.polygon
Polygon
p1678
(dp1679
g6
(lp1680
(lp1681
F3.5787909531727564
aF3.3168411260929953
aa(lp1682
F3.569783557126695
aF3.419848620283739
aa(lp1683
F3.543034777440187
aF3.5197294484154145
aa(lp1684
F3.4993565404902824
aF3.613451850539638
aa(lp1685
F3.4400746455507534
aF3.6981709981708866
aa(lp1686
F3.3669885217823703
aF3.7713153455635546
aa(lp1687
F3.2823166087692695
aF3.830664685826851
aa(lp1688
F3.188629018508197
aF3.874417542579983
aa(lp1689
F3.0887695228132963
aF3.9012458515566357
aa(lp1690
F2.9857692341130155
aF3.9103352723657685
aa(lp1691
F2.8827545997526034
aF3.9014099067946955
aa(lp1692
F2.782852502522215
aF3.874740673360705
aa(lp1693
F2.6890953479676205
aF3.8311370839119845
aa(lp1694
F2.6043290194417135
aF3.7719226718890266
aa(lp1695
F2.531126494808249
aF3.6988948180914947
aa(lp1696
F2.4717097468567575
aF3.614270193390078
aa(lp1697
F2.4278822980456747
aF3.5206174744028615
aa(lp1698
F2.4009744767916823
aF3.4207793744692694
aa(lp1699
F2.3918030369834105
aF3.317786356575677
aa(lp1700
F2.4006463664195965
aF3.214764647370919
aa(lp1701
F2.4272360366891395
aF3.1148413443933665
aa(lp1702
F2.470764950986055
aF3.0210494968632196
aa(lp1703
F2.529911842542432
aF2.936236041196062
aa(lp1704
F2.6028813800594977
aF2.8629753857421814
aa(lp1705
F2.687458662785682
aF2.8034912677808137
aa(lp1706
F2.781076451110451
aF2.7595892547043577
aa(lp1707
F2.880893091971767
aF2.7326019382362525
aa(lp1708
F2.983878773747058
aF2.7233484852447845
aa(lp1709
F3.086907492466353
aF2.732109772938207
aa(lp1710
F3.186851937826072
aF2.758619863181826
aa(lp1711
F3.2806784188549543
aF2.8020740747236723
aa(lp1712
F3.3655389478800677
aF2.8611534083062753
aa(lp1713
F3.4388576876971215
aF2.9340645832702394
aa(lp1714
F3.498409137947325
aF3.0185944703876624
aa(lp1715
F3.5423856874492934
aF3.112177268683544
aa(lp1716
F3.569452482017873
aF3.2119723871752264
aasg44
((lp1717
F2.9849963958718755
aF3.3168678606799964
aF0.5937945579027205
tp1718
sbsg47
(imodels.polygon
Polygon
p1719
(dp1720
g6
g1680
sg44
((lp1721
F2.9849963958718755
aF3.3168678606799964
aF0.5937945579027205
tp1722
sbsg52
(imodels.pose
Pose
p1723
(dp1724
g55
F3.3168411260929953
sg56
F2.9852966187218235
sg57
F2.1618639941832365
sbsg58
F0.5934943344509331
sg55
F3.3168411260929953
sg56
F2.9852966187218235
sba(imodels.circular_obstacle
CircularObstacle
p1725
(dp1726
g3
(imodels.polygon
Polygon
p1727
(dp1728
g6
(lp1729
(lp1730
F0.6532105590838231
aF-1.0524626943242623
aa(lp1731
F0.6445509339482854
aF-0.953432266298071
aa(lp1732
F0.6188349108341998
aF-0.8574077853688074
aa(lp1733
F0.5768430680604228
aF-0.7673039567986457
aa(lp1734
F0.5198500164753199
aF-0.6858557717141609
aa(lp1735
F0.44958571020886795
aF-0.6155354898074951
aa(lp1736
F0.36818293603831315
aF-0.5584775969277509
aa(lp1737
F0.2781125752632408
aF-0.5164140153828206
aa(lp1738
F0.18210860313638277
aF-0.4906215335634192
aa(lp1739
F0.08308510240038786
aF-0.4818830505985603
aa(lp1740
F-0.015952190117207693
aF-0.490463812413394
aa(lp1741
F-0.11199711895626487
aF-0.516103360514699
aa(lp1742
F-0.2021343581834047
aF-0.5580234378887697
aa(lp1743
F-0.2836279025325662
aF-0.6149516120378669
aa(lp1744
F-0.35400411548680033
aF-0.6851598981069555
aa(lp1745
F-0.4111268134787029
aF-0.7665172097431239
aa(lp1746
F-0.453262107120741
aF-0.8565540456062187
aa(lp1747
F-0.47913103128950874
aF-0.9525374480510647
aa(lp1748
F-0.4879483665422991
aF-1.0515539587024636
aa(lp1749
F-0.4794464734895425
aF-1.150598052908318
aa(lp1750
F-0.4538834166599869
aF-1.2466633687515902
aa(lp1751
F-0.41203513126866653
aF-1.3368339614764095
aa(lp1752
F-0.3551718706557987
aF-1.4183728134122309
aa(lp1753
F-0.2850196493056983
aF-1.4888049127859198
aa(lp1754
F-0.2037078517955434
aF-1.5459923796664028
aa(lp1755
F-0.11370459794005462
aF-1.5881993586860284
aa(lp1756
F-0.01774182604378377
aF-1.6141447087997376
aa(lp1757
F0.08126763173305285
aF-1.623040890749067
aa(lp1758
F0.18031846481970767
aF-1.6146178718497464
aa(lp1759
F0.2764041067486875
aF-1.5891313225024035
aa(lp1760
F0.3666079957907385
aF-1.5473548556313514
aa(lp1761
F0.4481921036064707
aF-1.4905565446137723
aa(lp1762
F0.5186800447360614
aF-1.4204604324687322
aa(lp1763
F0.5759322442404743
aF-1.339194200647356
aa(lp1764
F0.6182108818727085
aF-1.2492245858738065
aa(lp1765
F0.6442326414784701
aF-1.1532825053795905
aasg44
((lp1766
F0.08234210304469572
aF-1.0524369919458614
aF0.5708684566177303
tp1767
sbsg47
(imodels.polygon
Polygon
p1768
(dp1769
g6
g1729
sg44
((lp1770
F0.08234210304469572
aF-1.0524369919458614
aF0.5708684566177303
tp1771
sbsg52
(imodels.pose
Pose
p1772
(dp1773
g55
F-1.0524626943242623
sg56
F0.08263073444542292
sg57
F0.7964788206257328
sbsg58
F0.5705798246384002
sg55
F-1.0524626943242623
sg56
F0.08263073444542292
sba(imodels.circular_obstacle
CircularObstacle
p1774
(dp1775
g3
(imodels.polygon
Polygon
p1776
(dp1777
g6
(lp1778
(lp1779
F-2.09189368143386
aF0.5539373787982753
aa(lp1780
F-2.0975165756750993
aF0.6182401187830356
aa(lp1781
F-2.114214582345431
aF0.6805910280180535
aa(lp1782
F-2.1414808539468115
aF0.7390975211803992
aa(lp1783
F-2.178487756270264
aF0.7919837054785535
aa(lp1784
F-2.224111990216483
aF0.8376442856984376
aa(lp1785
F-2.2769686881613107
aF0.8746932909693644
aa(lp1786
F-2.3354534499127317
aF0.902006144208735
aa(lp1787
F-2.3977910423095334
aF0.9187537972791225
aa(lp1788
F-2.462089284245066
aF0.9244278957269447
aa(lp1789
F-2.5263964815023505
aF0.918856209257969
aa(lp1790
F-2.5887606680366075
aF0.9022078595765062
aa(lp1791
F-2.6472888555087852
aF0.8749881869036485
aa(lp1792
F-2.7002044926232154
aF0.8380234109950926
aa(lp1793
F-2.7459013901617313
aF0.7924355522545217
aa(lp1794
F-2.782992474886013
aF0.7396083741813739
aa(lp1795
F-2.8103518924433004
aF0.68114538092819
aa(lp1796
F-2.827149181293449
aF0.6188211449001363
aa(lp1797
F-2.8328744803497012
aF0.5545274417876825
aa(lp1798
F-2.8273540051861983
aF0.4902158280374041
aa(lp1799
F-2.8107553230509277
aF0.4278384037513043
aa(lp1800
F-2.783582266567577
aF0.3692885590841451
aa(lp1801
F-2.746659640514624
aF0.3163435027091662
aa(lp1802
F-2.7011081858886197
aF0.2706103168300816
aa(lp1803
F-2.648310561186784
aF0.2334771761732501
aa(lp1804
F-2.589869373505345
aF0.2060712116476457
aa(lp1805
F-2.527558533368102
aF0.18922429766950782
aa(lp1806
F-2.4632694098497
aF0.18344780163544488
aa(lp1807
F-2.398953420388758
aF0.18891706199274122
aa(lp1808
F-2.336562797906607
aF0.2054660660559925
aa(lp1809
F-2.2779913331730492
aF0.23259248911841474
aa(lp1810
F-2.225016891111906
aF0.2694729419017854
aa(lp1811
F-2.1792474458933273
aF0.31498796352739133
aa(lp1812
F-2.1420722728514194
aF0.36775600137702225
aa(lp1813
F-2.114619778736616
aF0.42617534642703586
aa(lp1814
F-2.097723250313729
aF0.4884727511599011
aasg44
((lp1815
F-2.462571730855974
aF0.5539540679451186
aF0.37067804979781444
tp1816
sbsg47
(imodels.polygon
Polygon
p1817
(dp1818
g6
g1778
sg44
((lp1819
F-2.462571730855974
aF0.5539540679451186
aF0.37067804979781444
tp1820
sbsg52
(imodels.pose
Pose
p1821
(dp1822
g55
F0.5539373787982753
sg56
F-2.4623843158333147
sg57
F2.1130214877434073
sbsg58
F0.3704906343994551
sg55
F0.5539373787982753
sg56
F-2.4623843158333147
sba(imodels.circular_obstacle
CircularObstacle
p1823
(dp1824
g3
(imodels.polygon
Polygon
p1825
(dp1826
g6
(lp1827
(lp1828
F-0.6397333903784477
aF-0.6168991155532929
aa(lp1829
F-0.6435926151468527
aF-0.5727654868242599
aa(lp1830
F-0.6550531474208737
aF-0.5299714802275257
aa(lp1831
F-0.6737671168095112
aF-0.48981605530975963
aa(lp1832
F-0.6991664837407165
aF-0.4535180807092507
aa(lp1833
F-0.7304802816054144
aF-0.4221793368943807
aa(lp1834
F-0.7667580185026681
aF-0.39675107296978607
aa(lp1835
F-0.8068985282547392
aF-0.37800513267730973
aa(lp1836
F-0.8496833949548872
aF-0.3665105260265463
aa(lp1837
F-0.8938139364867858
aF-0.3626161576943802
aa(lp1838
F-0.937950624426216
aF-0.36644023645174933
aa(lp1839
F-0.980753743782302
aF-0.37786668708148813
aa(lp1840
F-1.0209240584017492
aF-0.3965486736990788
aa(lp1841
F-1.0572422476876489
aF-0.42191912753023364
aa(lp1842
F-1.088605917579655
aF-0.45320795958754245
aa(lp1843
F-1.1140630623726528
aF-0.4894654357765099
aa(lp1844
F-1.1328409616814863
aF-0.5295910049083306
aa(lp1845
F-1.1443696354198445
aF-0.5723667045804539
aa(lp1846
F-1.1482991448462112
aF-0.6164941309304384
aa(lp1847
F-1.1445102145248653
aF-0.6606338500915883
aa(lp1848
F-1.133117852785336
aF-0.7034460550640131
aa(lp1849
F-1.1144678607857188
aF-0.7436312339116854
aa(lp1850
F-1.0891263361429409
aF-0.7799696148522928
aa(lp1851
F-1.0578624897344064
aF-0.8113581909325924
aa(lp1852
F-1.021625297245908
aF-0.8368442004506933
aa(lp1853
F-0.9815146941794191
aF-0.8556540468681356
aa(lp1854
F-0.9387481886609456
aF-0.8672167803833375
aa(lp1855
F-0.8946239054756794
aF-0.8711814284120605
aa(lp1856
F-0.8504811830834093
aF-0.8674276489294359
aa(lp1857
F-0.8076599196434202
aF-0.8560693833044268
aa(lp1858
F-0.7674599020504045
aF-0.8374513977494201
aa(lp1859
F-0.7311013524985773
aF-0.8121388183650009
aa(lp1860
F-0.6996878901346205
aF-0.7808999774307814
aa(lp1861
F-0.6741730320530214
aF-0.7446830916220724
aa(lp1862
F-0.655331250454977
aF-0.7045874800565058
aa(lp1863
F-0.6437344644952808
aF-0.661830195811477
aasg44
((lp1864
F-0.894145059540211
aF-0.6168876611018842
aF0.25441166941962184
tp1865
sbsg47
(imodels.polygon
Polygon
p1866
(dp1867
g6
g1827
sg44
((lp1868
F-0.894145059540211
aF-0.6168876611018842
aF0.25441166941962184
tp1869
sbsg52
(imodels.pose
Pose
p1870
(dp1871
g55
F-0.6168991155532929
sg56
F-0.894016428862417
sg57
F0.20413584617411476
sbsg58
F0.2542830384839692
sg55
F-0.6168991155532929
sg56
F-0.894016428862417
sba(imodels.circular_obstacle
CircularObstacle
p1872
(dp1873
g3
(imodels.polygon
Polygon
p1874
(dp1875
g6
(lp1876
(lp1877
F2.8327103656448642
aF-1.0208546849048905
aa(lp1878
F2.827299529134214
aF-0.9589770115365094
aa(lp1879
F2.81123125890351
aF-0.898977558997156
aa(lp1880
F2.784993287574082
aF-0.8426775370278428
aa(lp1881
F2.7493820365622454
aF-0.7917858636951548
aa(lp1882
F2.705478441684704
aF-0.7478472932807936
aa(lp1883
F2.654615142678529
aF-0.7121955271613225
aa(lp1884
F2.5983360325575657
aF-0.6859127309398108
aa(lp1885
F2.538349394634909
aF-0.6697966866371574
aa(lp1886
F2.4764760496796088
aF-0.6643365769980101
aa(lp1887
F2.4145940871370275
aF-0.6696981369489549
aa(lp1888
F2.3545818580288103
aF-0.6857186229182354
aa(lp1889
F2.2982609599130366
aF-0.711911752717129
aa(lp1890
F2.247340944526095
aF-0.7474824660389425
aa(lp1891
F2.203367426437957
aF-0.7913510575387991
aa(lp1892
F2.1676751678189317
aF-0.8421859499641956
aa(lp1893
F2.1413475633722125
aF-0.8984441125481809
aa(lp1894
F2.1251837552173787
aF-0.9584178978144352
aa(lp1895
F2.119674375912188
aF-1.020286875120518
aa(lp1896
F2.1249866559034674
aF-1.0821730875956992
aa(lp1897
F2.1409593474521524
aF-1.1421980552168451
aa(lp1898
F2.1671076191104963
aF-1.1985397937639515
aa(lp1899
F2.2026377721856054
aF-1.2494881189149156
aa(lp1900
F2.2464713324891097
aF-1.293496556791624
aa(lp1901
F2.2972777860974753
aF-1.3292292852764462
aa(lp1902
F2.353514965469138
aF-1.3556016812530827
aa(lp1903
F2.4134758600474333
aF-1.3718132430100387
aa(lp1904
F2.4753404304709328
aF-1.3773718884875752
aa(lp1905
F2.537230853634418
aF-1.3721088918246704
aa(lp1906
F2.5972685217044797
aF-1.3561840048254452
aa(lp1907
F2.653631064954576
aF-1.33008060788922
aa(lp1908
F2.704607667561378
aF-1.294591037591776
aa(lp1909
F2.7486509973193076
aF-1.2507925362810774
aa(lp1910
F2.7844241730105055
aF-1.2000145537079603
aa(lp1911
F2.8108413437933644
aF-1.1437983932106595
aa(lp1912
F2.8271006488721024
aF-1.0838504273437048
aasg44
((lp1913
F2.4760117977081615
aF-1.0208386251603536
aF0.356698568298234
tp1914
sbsg47
(imodels.polygon
Polygon
p1915
(dp1916
g6
g1876
sg44
((lp1917
F2.4760117977081615
aF-1.0208386251603536
aF0.356698568298234
tp1918
sbsg52
(imodels.pose
Pose
p1919
(dp1920
g55
F-1.0208546849048905
sg56
F2.4761921446974053
sg57
F1.446603757917159
sbsg58
F0.3565182209474587
sg55
F-1.0208546849048905
sg56
F2.4761921446974053
sba(imodels.circular_obstacle
CircularObstacle
p1921
(dp1922
g3
(imodels.polygon
Polygon
p1923
(dp1924
g6
(lp1925
(lp1926
F5.360865077449118
aF0.3815013926797455
aa(lp1927
F5.3568881991437145
aF0.4269804930597365
aa(lp1928
F5.345078277487409
aF0.47107913116683947
aa(lp1929
F5.325793788157076
aF0.5124587469661381
aa(lp1930
F5.299620088157361
aF0.5498633130076551
aa(lp1931
F5.26735164802725
aF0.582157459598001
aa(lp1932
F5.229967936661959
aF0.6083609375539113
aa(lp1933
F5.188603690736776
aF0.6276783724630877
aa(lp1934
F5.144514471168014
aF0.6395234072982741
aa(lp1935
F5.099038552102417
aF0.643536500565149
aa(lp1936
F5.053556299247981
aF0.6395958397430994
aa(lp1937
F5.009448270567086
aF0.6278210387547762
aa(lp1938
F4.96805331113399
aF0.6085695072322816
aa(lp1939
F4.930627914135841
aF0.582425601786456
aa(lp1940
F4.898308081564152
aF0.5501828885791704
aa(lp1941
F4.872074842268624
aF0.5128200555964741
aa(lp1942
F4.852724474030492
aF0.4714712057759777
aa(lp1943
F4.840844333527791
aF0.4273914327041323
aa(lp1944
F4.836795027844293
aF0.3819187237908634
aa(lp1945
F4.840699468684072
aF0.3364333473039314
aa(lp1946
F4.852439141537584
aF0.2923159560197472
aa(lp1947
F4.871657703044145
aF0.2509056792029009
aa(lp1948
F4.897771797357281
aF0.21345947498092507
aa(lp1949
F4.929988763195465
aF0.18111397692307227
aa(lp1950
F4.967330694102436
aF0.15485099292337637
aa(lp1951
F5.008664121597438
aF0.13546770362705976
aa(lp1952
F5.052734420219782
aF0.12355246499047301
aa(lp1953
F5.098203890144826
aF0.119466949458164
aa(lp1954
F5.1436923614203245
aF0.12333516783972498
aa(lp1955
F5.1878190873313565
aF0.13503970511387312
aa(lp1956
F5.2292446552721925
aF0.1542252844173116
aa(lp1957
F5.266711642971997
aF0.1803095510378623
aa(lp1958
F5.299082786004558
aF0.21250074907699681
aa(lp1959
F5.325375498054109
aF0.24982175422836814
aa(lp1960
F5.344791696116962
aF0.2911397331868476
aa(lp1961
F5.356742025331549
aF0.3352005294131107
aasg44
((lp1962
F5.098697334327706
aF0.3815131963351531
aF0.2621677433871311
tp1963
sbsg47
(imodels.polygon
Polygon
p1964
(dp1965
g6
g1925
sg44
((lp1966
F5.098697334327706
aF0.3815131963351531
aF0.2621677433871311
tp1967
sbsg52
(imodels.pose
Pose
p1968
(dp1969
g55
F0.3815013926797455
sg56
F5.098829886480697
sg57
F-1.664673012851091
sbsg58
F0.26203519096842076
sg55
F0.3815013926797455
sg56
F5.098829886480697
sba.(lp0
F1.1733299153154046
aF-3.0676264089150975
a.