(lp0
(imodels.rectangle_obstacle
RectangleObstacle
p1
(dp2
S'geometry'
p3
(imodels.polygon
Polygon
p4
(dp5
S'vertexes'
p6
(lp7
(lp8
F0.47113747768363606
aF0.17871392824073085
aa(lp9
F0.47113747768363606
aF-0.17871392824073085
aa(lp10
F-0.47113747768363606
aF-0.17871392824073085
aa(lp11
F-0.47113747768363606
aF0.17871392824073085
aasS'bounding_circle'
p12
((lp13
F0.0
aF0.0
aF0.5038940275745801
tp14
sbsS'width'
p15
F0.9422749553672721
sS'pose'
p16
(imodels.pose
Pose
p17
(dp18
S'y'
p19
F-0.17965643896186728
sS'x'
p20
F0.9370032799355659
sS'theta'
p21
F-1.7572772609038203
sbsS'global_geometry'
p22
(imodels.polygon
Polygon
p23
(dp24
g6
(lp25
(lp26
F1.0252689736094784
aF-0.6757596120474612
aa(lp27
F0.6740379296001959
aF-0.6094917743501156
aa(lp28
F0.8487375862616532
aF0.31644673412372665
aa(lp29
F1.1999686302709358
aF0.25017889642638097
aasg12
((lp30
F0.9370032799355659
aF-0.17965643896186728
aF0.5038940275745801
tp31
sbsS'height'
p32
F0.3574278564814617
sba(imodels.rectangle_obstacle
RectangleObstacle
p33
(dp34
g3
(imodels.polygon
Polygon
p35
(dp36
g6
(lp37
(lp38
F0.8734761457565062
aF0.34727169290097987
aa(lp39
F0.8734761457565062
aF-0.34727169290097987
aa(lp40
F-0.8734761457565062
aF-0.34727169290097987
aa(lp41
F-0.8734761457565062
aF0.34727169290097987
aasg12
((lp42
F0.0
aF0.0
aF0.9399777688307068
tp43
sbsg15
F1.7469522915130125
sg16
(imodels.pose
Pose
p44
(dp45
g19
F-2.9862637442784687
sg20
F-1.223347606353012
sg21
F2.436732911476283
sbsg22
(imodels.polygon
Polygon
p46
(dp47
g6
(lp48
(lp49
F-2.1136832210339627
aF-2.684832659075486
aa(lp50
F-1.6636698079129886
aF-2.155797270115105
aa(lp51
F-0.3330119916720615
aF-3.2876948294814516
aa(lp52
F-0.7830254047930354
aF-3.8167302184418324
aasg12
((lp53
F-1.2233476063530122
aF-2.986263744278469
aF0.9399777688307069
tp54
sbsg32
F0.6945433858019597
sba(imodels.rectangle_obstacle
RectangleObstacle
p55
(dp56
g3
(imodels.polygon
Polygon
p57
(dp58
g6
(lp59
(lp60
F0.6442458020619259
aF0.09178725309718067
aa(lp61
F0.6442458020619259
aF-0.09178725309718067
aa(lp62
F-0.6442458020619259
aF-0.09178725309718067
aa(lp63
F-0.6442458020619259
aF0.09178725309718067
aasg12
((lp64
F0.0
aF0.0
aF0.6507515296221287
tp65
sbsg15
F1.2884916041238519
sg16
(imodels.pose
Pose
p66
(dp67
g19
F-1.3551271989586242
sg20
F3.875354433470105
sg21
F-2.8149548612026143
sbsg22
(imodels.polygon
Polygon
p68
(dp69
g6
(lp70
(lp71
F3.2946230614245504
aF-1.648774311710696
aa(lp72
F3.235721269723779
aF-1.4749060332383348
aa(lp73
F4.456085805515659
aF-1.0614800862065523
aa(lp74
F4.514987597216431
aF-1.2353483646789136
aasg12
((lp75
F3.875354433470105
aF-1.3551271989586242
aF0.6507515296221288
tp76
sbsg32
F0.18357450619436133
sba(imodels.rectangle_obstacle
RectangleObstacle
p77
(dp78
g3
(imodels.polygon
Polygon
p79
(dp80
g6
(lp81
(lp82
F0.449813695104341
aF0.11093006848912132
aa(lp83
F0.449813695104341
aF-0.11093006848912132
aa(lp84
F-0.449813695104341
aF-0.11093006848912132
aa(lp85
F-0.449813695104341
aF0.11093006848912132
aasg12
((lp86
F0.0
aF0.0
aF0.46329023343733694
tp87
sbsg15
F0.899627390208682
sg16
(imodels.pose
Pose
p88
(dp89
g19
F-2.2225962673370008
sg20
F-1.4580231998216884
sg21
F-1.0374150861139904
sbsg22
(imodels.polygon
Polygon
p90
(dp91
g6
(lp92
(lp93
F-1.13379532967152
aF-2.5535254570684414
aa(lp94
F-1.324837498833427
aF-2.6663297565517405
aa(lp95
F-1.7822510699718568
aF-1.8916670776055602
aa(lp96
F-1.5912089008099497
aF-1.778862778122261
aasg12
((lp97
F-1.4580231998216884
aF-2.2225962673370008
aF0.46329023343733705
tp98
sbsg32
F0.22186013697824264
sba(imodels.rectangle_obstacle
RectangleObstacle
p99
(dp100
g3
(imodels.polygon
Polygon
p101
(dp102
g6
(lp103
(lp104
F0.7755640312928304
aF0.31262722371492085
aa(lp105
F0.7755640312928304
aF-0.31262722371492085
aa(lp106
F-0.7755640312928304
aF-0.31262722371492085
aa(lp107
F-0.7755640312928304
aF0.31262722371492085
aasg12
((lp108
F0.0
aF0.0
aF0.836202934485933
tp109
sbsg15
F1.5511280625856607
sg16
(imodels.pose
Pose
p110
(dp111
g19
F3.6442368427062783
sg20
F-1.492365798665846
sg21
F0.1485551926145372
sbsg22
(imodels.polygon
Polygon
p112
(dp113
g6
(lp114
(lp115
F-0.7716156300792318
aF4.068211537853586
aa(lp116
F-0.6790720986938887
aF3.4498436709414
aa(lp117
F-2.2131159672524605
aF3.2202621475589703
aa(lp118
F-2.3056594986378034
aF3.8386300144711565
aasg12
((lp119
F-1.492365798665846
aF3.6442368427062783
aF0.8362029344859332
tp120
sbsg32
F0.6252544474298417
sba(imodels.rectangle_obstacle
RectangleObstacle
p121
(dp122
g3
(imodels.polygon
Polygon
p123
(dp124
g6
(lp125
(lp126
F0.30393806924124483
aF0.2039051386778632
aa(lp127
F0.30393806924124483
aF-0.2039051386778632
aa(lp128
F-0.30393806924124483
aF-0.2039051386778632
aa(lp129
F-0.30393806924124483
aF0.2039051386778632
aasg12
((lp130
F0.0
aF0.0
aF0.36599952938949853
tp131
sbsg15
F0.6078761384824897
sg16
(imodels.pose
Pose
p132
(dp133
g19
F-0.6882368366124176
sg20
F0.5432371730732726
sg21
F-1.625359436355073
sbsg22
(imodels.polygon
Polygon
p134
(dp135
g6
(lp136
(lp137
F0.7302632819988003
aF-1.0028427648679274
aa(lp138
F0.323059906753546
aF-0.9806024072757681
aa(lp139
F0.35621106414774484
aF-0.3736309083569078
aa(lp140
F0.7634144393929991
aF-0.3958712659490672
aasg12
((lp141
F0.5432371730732726
aF-0.6882368366124176
aF0.3659995293894985
tp142
sbsg32
F0.4078102773557264
sba(imodels.rectangle_obstacle
RectangleObstacle
p143
(dp144
g3
(imodels.polygon
Polygon
p145
(dp146
g6
(lp147
(lp148
F0.10218272814174863
aF0.5892539062271636
aa(lp149
F0.10218272814174863
aF-0.5892539062271636
aa(lp150
F-0.10218272814174863
aF-0.5892539062271636
aa(lp151
F-0.10218272814174863
aF0.5892539062271636
aasg12
((lp152
F0.0
aF0.0
aF0.5980480548705609
tp153
sbsg15
F0.20436545628349725
sg16
(imodels.pose
Pose
p154
(dp155
g19
F0.5178001948876624
sg20
F4.998448923373271
sg21
F0.6551790751727995
sbsg22
(imodels.polygon
Polygon
p156
(dp157
g6
(lp158
(lp159
F4.7204404353827005
aF1.0473025617753455
aa(lp160
F5.438506717180042
aF0.11281795571614173
aa(lp161
F5.276457411363841
aF-0.01170217200002066
aa(lp162
F4.5583911295665
aF0.922782434059183
aasg12
((lp163
F4.998448923373271
aF0.5178001948876624
aF0.5980480548705611
tp164
sbsg32
F1.1785078124543271
sba(imodels.rectangle_obstacle
RectangleObstacle
p165
(dp166
g3
(imodels.polygon
Polygon
p167
(dp168
g6
(lp169
(lp170
F0.8686214381733393
aF0.16727585920414073
aa(lp171
F0.8686214381733393
aF-0.16727585920414073
aa(lp172
F-0.8686214381733393
aF-0.16727585920414073
aa(lp173
F-0.8686214381733393
aF0.16727585920414073
aasg12
((lp174
F0.0
aF0.0
aF0.8845814919648747
tp175
sbsg15
F1.7372428763466785
sg16
(imodels.pose
Pose
p176
(dp177
g19
F0.6050318148041599
sg20
F-0.18009145563712578
sg21
F0.1321744478834952
sbsg22
(imodels.polygon
Polygon
p178
(dp179
g6
(lp180
(lp181
F0.6589083027145535
aF0.8853242003814844
aa(lp182
F0.7029988516407262
aF0.553690553437567
aa(lp183
F-1.019091213988805
aF0.3247394292268354
aa(lp184
F-1.0631817629149778
aF0.6563730761707528
aasg12
((lp185
F-0.1800914556371258
aF0.6050318148041599
aF0.8845814919648748
tp186
sbsg32
F0.33455171840828146
sba(imodels.rectangle_obstacle
RectangleObstacle
p187
(dp188
g3
(imodels.polygon
Polygon
p189
(dp190
g6
(lp191
(lp192
F0.5202627480985828
aF0.3947559399688398
aa(lp193
F0.5202627480985828
aF-0.3947559399688398
aa(lp194
F-0.5202627480985828
aF-0.3947559399688398
aa(lp195
F-0.5202627480985828
aF0.3947559399688398
aasg12
((lp196
F0.0
aF0.0
aF0.6530739461958129
tp197
sbsg15
F1.0405254961971655
sg16
(imodels.pose
Pose
p198
(dp199
g19
F-0.8883389289812942
sg20
F-5.38753449245028
sg21
F2.7224127281550103
sbsg22
(imodels.polygon
Polygon
p200
(dp201
g6
(lp202
(lp203
F-6.023424679952967
aF-1.0371651653698053
aa(lp204
F-5.702084253578154
aF-0.3160068339751092
aa(lp205
F-4.751644304947593
aF-0.739512692592783
aa(lp206
F-5.072984731322406
aF-1.4606710239874792
aasg12
((lp207
F-5.38753449245028
aF-0.8883389289812942
aF0.6530739461958128
tp208
sbsg32
F0.7895118799376796
sba(imodels.rectangle_obstacle
RectangleObstacle
p209
(dp210
g3
(imodels.polygon
Polygon
p211
(dp212
g6
(lp213
(lp214
F0.7527585189271205
aF0.377073769149169
aa(lp215
F0.7527585189271205
aF-0.377073769149169
aa(lp216
F-0.7527585189271205
aF-0.377073769149169
aa(lp217
F-0.7527585189271205
aF0.377073769149169
aasg12
((lp218
F0.0
aF0.0
aF0.841920432818751
tp219
sbsg15
F1.505517037854241
sg16
(imodels.pose
Pose
p220
(dp221
g19
F4.836307619314289
sg20
F0.18785592084350913
sg21
F-2.0320896977763994
sbsg22
(imodels.polygon
Polygon
p222
(dp223
g6
(lp224
(lp225
F0.19045918619102178
aF3.99439121122662
aa(lp226
F-0.48486301024724443
aF4.330067305876267
aa(lp227
F0.18525265549599648
aF5.678224027401959
aa(lp228
F0.8605748519342626
aF5.3425479327523115
aasg12
((lp229
F0.1878559208435091
aF4.836307619314289
aF0.8419204328187512
tp230
sbsg32
F0.754147538298338
sba(imodels.rectangle_obstacle
RectangleObstacle
p231
(dp232
g3
(imodels.polygon
Polygon
p233
(dp234
g6
(lp235
(lp236
F1.0033821872734725
aF0.18678651822341236
aa(lp237
F1.0033821872734725
aF-0.18678651822341236
aa(lp238
F-1.0033821872734725
aF-0.18678651822341236
aa(lp239
F-1.0033821872734725
aF0.18678651822341236
aasg12
((lp240
F0.0
aF0.0
aF1.020619918053593
tp241
sbsg15
F2.006764374546945
sg16
(imodels.pose
Pose
p242
(dp243
g19
F0.3817535710665051
sg20
F3.2075460364530257
sg21
F-1.58035594354574
sbsg22
(imodels.polygon
Polygon
p244
(dp245
g6
(lp246
(lp247
F3.384732216809404
aF-0.6233683492090604
aa(lp248
F3.011176249956224
aF-0.6197971885452701
aa(lp249
F3.0303598560966476
aF1.3868754913420704
aa(lp250
F3.4039158229498274
aF1.3833043306782802
aasg12
((lp251
F3.2075460364530253
aF0.38175357106650504
aF1.0206199180535933
tp252
sbsg32
F0.3735730364468247
sba(imodels.rectangle_obstacle
RectangleObstacle
p253
(dp254
g3
(imodels.polygon
Polygon
p255
(dp256
g6
(lp257
(lp258
F0.35050154278221096
aF0.5840509191963256
aa(lp259
F0.35050154278221096
aF-0.5840509191963256
aa(lp260
F-0.35050154278221096
aF-0.5840509191963256
aa(lp261
F-0.35050154278221096
aF0.5840509191963256
aasg12
((lp262
F0.0
aF0.0
aF0.681151090219184
tp263
sbsg15
F0.7010030855644219
sg16
(imodels.pose
Pose
p264
(dp265
g19
F2.896679794620856
sg20
F4.8993171335504195
sg21
F1.947429728941171
sbsg22
(imodels.polygon
Polygon
p266
(dp267
g6
(lp268
(lp269
F4.227291806896929
aF3.007804805500733
aa(lp270
F5.313519180360929
aF3.4374232385244947
aa(lp271
F5.57134246020391
aF2.785554783740979
aa(lp272
F4.48511508673991
aF2.3559363507172173
aasg12
((lp273
F4.8993171335504195
aF2.896679794620856
aF0.6811510902191844
tp274
sbsg32
F1.1681018383926511
sba(imodels.rectangle_obstacle
RectangleObstacle
p275
(dp276
g3
(imodels.polygon
Polygon
p277
(dp278
g6
(lp279
(lp280
F0.08004297800424576
aF0.598279483826156
aa(lp281
F0.08004297800424576
aF-0.598279483826156
aa(lp282
F-0.08004297800424576
aF-0.598279483826156
aa(lp283
F-0.08004297800424576
aF0.598279483826156
aasg12
((lp284
F0.0
aF0.0
aF0.6036101548972481
tp285
sbsg15
F0.16008595600849151
sg16
(imodels.pose
Pose
p286
(dp287
g19
F-0.5861442671618121
sg20
F-5.346641580530494
sg21
F1.1616959111708969
sbsg22
(imodels.polygon
Polygon
p288
(dp289
g6
(lp290
(lp291
F-5.863710636545165
aF-0.2747204234902391
aa(lp292
F-4.765892870299789
aF-0.7506926024935701
aa(lp293
F-4.8295725245158225
aF-0.8975681108333851
aa(lp294
F-5.927390290761199
aF-0.4215959318300542
aasg12
((lp295
F-5.346641580530494
aF-0.5861442671618121
aF0.6036101548972485
tp296
sbsg32
F1.196558967652312
sba(imodels.rectangle_obstacle
RectangleObstacle
p297
(dp298
g3
(imodels.polygon
Polygon
p299
(dp300
g6
(lp301
(lp302
F0.1940532020436343
aF0.8198601851329791
aa(lp303
F0.1940532020436343
aF-0.8198601851329791
aa(lp304
F-0.1940532020436343
aF-0.8198601851329791
aa(lp305
F-0.1940532020436343
aF0.8198601851329791
aasg12
((lp306
F0.0
aF0.0
aF0.8425125330757225
tp307
sbsg15
F0.3881064040872686
sg16
(imodels.pose
Pose
p308
(dp309
g19
F-3.714433371003302
sg20
F1.2366527823039442
sg21
F-0.660802413860941
sbsg22
(imodels.polygon
Polygon
p310
(dp311
g6
(lp312
(lp313
F1.8930474298914794
aF-3.18625401225468
aa(lp314
F0.8866681422042999
aF-4.480813250752237
aa(lp315
F0.5802581347164089
aF-4.242612729751924
aa(lp316
F1.5866374224035884
aF-2.9480534912543668
aasg12
((lp317
F1.2366527823039442
aF-3.714433371003302
aF0.8425125330757225
tp318
sbsg32
F1.6397203702659582
sba(imodels.rectangle_obstacle
RectangleObstacle
p319
(dp320
g3
(imodels.polygon
Polygon
p321
(dp322
g6
(lp323
(lp324
F0.5613969733947154
aF0.3503404759814647
aa(lp325
F0.5613969733947154
aF-0.3503404759814647
aa(lp326
F-0.5613969733947154
aF-0.3503404759814647
aa(lp327
F-0.5613969733947154
aF0.3503404759814647
aasg12
((lp328
F0.0
aF0.0
aF0.6617439163661922
tp329
sbsg15
F1.1227939467894308
sg16
(imodels.pose
Pose
p330
(dp331
g19
F1.2909826627181578
sg20
F-2.9698175646918172
sg21
F2.080303275699129
sbsg22
(imodels.polygon
Polygon
p332
(dp333
g6
(lp334
(lp335
F-3.549479201581642
aF1.610196380415056
aa(lp336
F-2.937795172149156
aF1.9519513285590657
aa(lp337
F-2.3901559278019926
aF0.9717689450212594
aa(lp338
F-3.0018399572344783
aF0.6300139968772498
aasg12
((lp339
F-2.9698175646918172
aF1.2909826627181578
aF0.6617439163661922
tp340
sbsg32
F0.7006809519629295
sba.(lp0
F2.352021369130112
aF-1.8246720003949277
a.