(lp0
(imodels.rectangle_obstacle
RectangleObstacle
p1
(dp2
S'geometry'
p3
(imodels.polygon
Polygon
p4
(dp5
S'vertexes'
p6
(lp7
(lp8
F0.4974114756336244
aF0.24312586696891286
aa(lp9
F0.4974114756336244
aF-0.24312586696891286
aa(lp10
F-0.4974114756336244
aF-0.24312586696891286
aa(lp11
F-0.4974114756336244
aF0.24312586696891286
aasS'bounding_circle'
p12
((lp13
F0.0
aF0.0
aF0.553650036829589
tp14
sbsS'width'
p15
F0.9948229512672488
sS'pose'
p16
(imodels.pose
Pose
p17
(dp18
S'y'
p19
F0.3400484653011055
sS'x'
p20
F0.5267830539121249
sS'theta'
p21
F-2.910790082463148
sbsS'global_geometry'
p22
(imodels.polygon
Polygon
p23
(dp24
g6
(lp25
(lp26
F0.09817858465993434
aF-0.01041775592207217
aa(lp27
F-0.013055820585706313
aF0.46294009586364676
aa(lp28
F0.9553875231643154
aF0.6905146865242832
aa(lp29
F1.066621928409956
aF0.21715683473856423
aasg12
((lp30
F0.5267830539121249
aF0.3400484653011055
aF0.553650036829589
tp31
sbsS'height'
p32
F0.4862517339378257
sba(imodels.rectangle_obstacle
RectangleObstacle
p33
(dp34
g3
(imodels.polygon
Polygon
p35
(dp36
g6
(lp37
(lp38
F0.8756304537027025
aF0.262937275702919
aa(lp39
F0.8756304537027025
aF-0.262937275702919
aa(lp40
F-0.8756304537027025
aF-0.262937275702919
aa(lp41
F-0.8756304537027025
aF0.262937275702919
aasg12
((lp42
F0.0
aF0.0
aF0.9142563657999181
tp43
sbsg15
F1.751260907405405
sg16
(imodels.pose
Pose
p44
(dp45
g19
F-2.5823399056257506
sg20
F-1.169217646515906
sg21
F-0.877729939639964
sbsg22
(imodels.polygon
Polygon
p46
(dp47
g6
(lp48
(lp49
F-0.4075029617330691
aF-3.0879637197325
aa(lp50
F-0.8120532702641995
aF-3.4239445103793145
aa(lp51
F-1.930932331298743
aF-2.076716091519001
aa(lp52
F-1.5263820227676126
aF-1.7407353008721864
aasg12
((lp53
F-1.169217646515906
aF-2.5823399056257506
aF0.9142563657999181
tp54
sbsg32
F0.525874551405838
sba(imodels.rectangle_obstacle
RectangleObstacle
p55
(dp56
g3
(imodels.polygon
Polygon
p57
(dp58
g6
(lp59
(lp60
F0.13690285463644045
aF0.22303462269166086
aa(lp61
F0.13690285463644045
aF-0.22303462269166086
aa(lp62
F-0.13690285463644045
aF-0.22303462269166086
aa(lp63
F-0.13690285463644045
aF0.22303462269166086
aasg12
((lp64
F0.0
aF0.0
aF0.26169989401376886
tp65
sbsg15
F0.2738057092728809
sg16
(imodels.pose
Pose
p66
(dp67
g19
F3.8954969951322993
sg20
F3.382940674106424
sg21
F-1.0031906118096612
sbsg22
(imodels.polygon
Polygon
p68
(dp69
g6
(lp70
(lp71
F3.6446023644166523
aF3.899968499444283
aa(lp72
F3.2684809725635895
aF3.6601550922557755
aa(lp73
F3.121278983796196
aF3.8910254908203155
aa(lp74
F3.4974003756492587
aF4.130838898008823
aasg12
((lp75
F3.382940674106424
aF3.895496995132299
aF0.261699894013769
tp76
sbsg32
F0.4460692453833217
sba(imodels.rectangle_obstacle
RectangleObstacle
p77
(dp78
g3
(imodels.polygon
Polygon
p79
(dp80
g6
(lp81
(lp82
F0.9886593495346618
aF0.17858718449562144
aa(lp83
F0.9886593495346618
aF-0.17858718449562144
aa(lp84
F-0.9886593495346618
aF-0.17858718449562144
aa(lp85
F-0.9886593495346618
aF0.17858718449562144
aasg12
((lp86
F0.0
aF0.0
aF1.0046594905182422
tp87
sbsg15
F1.9773186990693237
sg16
(imodels.pose
Pose
p88
(dp89
g19
F1.657427165702948
sg20
F-0.7995258965008925
sg21
F0.25929057328515404
sbsg22
(imodels.polygon
Polygon
p90
(dp91
g6
(lp92
(lp93
F0.11029581764746976
aF2.083531777685158
aa(lp94
F0.2018735058354173
aF1.7382969925165082
aa(lp95
F-1.7093476106492547
aF1.2313225537207382
aa(lp96
F-1.8009252988372022
aF1.5765573388893879
aasg12
((lp97
F-0.7995258965008925
aF1.657427165702948
aF1.004659490518242
tp98
sbsg32
F0.3571743689912429
sba(imodels.rectangle_obstacle
RectangleObstacle
p99
(dp100
g3
(imodels.polygon
Polygon
p101
(dp102
g6
(lp103
(lp104
F0.11943560360794674
aF0.7512933537631958
aa(lp105
F0.11943560360794674
aF-0.7512933537631958
aa(lp106
F-0.11943560360794674
aF-0.7512933537631958
aa(lp107
F-0.11943560360794674
aF0.7512933537631958
aasg12
((lp108
F0.0
aF0.0
aF0.7607276561411088
tp109
sbsg15
F0.23887120721589347
sg16
(imodels.pose
Pose
p110
(dp111
g19
F0.9982231227721413
sg20
F-0.6128408197617692
sg21
F1.165405429247519
sbsg22
(imodels.polygon
Polygon
p112
(dp113
g6
(lp114
(lp115
F-1.2561377994060554
aF1.4042718425072045
aa(lp116
F0.12466171006761773
aF0.8116846942561935
aa(lp117
F0.030456159882517042
aF0.5921744030370782
aa(lp118
F-1.350343349591156
aF1.1847615512880891
aasg12
((lp119
F-0.6128408197617692
aF0.9982231227721414
aF0.7607276561411088
tp120
sbsg32
F1.5025867075263917
sba(imodels.rectangle_obstacle
RectangleObstacle
p121
(dp122
g3
(imodels.polygon
Polygon
p123
(dp124
g6
(lp125
(lp126
F1.1911469036463977
aF0.056646269800104634
aa(lp127
F1.1911469036463977
aF-0.056646269800104634
aa(lp128
F-1.1911469036463977
aF-0.056646269800104634
aa(lp129
F-1.1911469036463977
aF0.056646269800104634
aasg12
((lp130
F0.0
aF0.0
aF1.1924930800422564
tp131
sbsg15
F2.3822938072927955
sg16
(imodels.pose
Pose
p132
(dp133
g19
F5.281541273161943
sg20
F1.7395127348322637
sg21
F2.8206442274241503
sbsg22
(imodels.polygon
Polygon
p134
(dp135
g6
(lp136
(lp137
F0.5913197730277262
aF5.603554733146446
aa(lp138
F0.6270597964839664
aF5.711062175923271
aa(lp139
F2.887705696636801
aF4.95952781317744
aa(lp140
F2.851965673180561
aF4.852020370400615
aasg12
((lp141
F1.7395127348322637
aF5.2815412731619436
aF1.1924930800422564
tp142
sbsg32
F0.11329253960020927
sba(imodels.rectangle_obstacle
RectangleObstacle
p143
(dp144
g3
(imodels.polygon
Polygon
p145
(dp146
g6
(lp147
(lp148
F0.9143354392849121
aF0.07380619480567648
aa(lp149
F0.9143354392849121
aF-0.07380619480567648
aa(lp150
F-0.9143354392849121
aF-0.07380619480567648
aa(lp151
F-0.9143354392849121
aF0.07380619480567648
aasg12
((lp152
F0.0
aF0.0
aF0.9173094624629284
tp153
sbsg15
F1.8286708785698242
sg16
(imodels.pose
Pose
p154
(dp155
g19
F-1.360369412187748
sg20
F3.009326799339264
sg21
F-1.8829991094637673
sbsg22
(imodels.polygon
Polygon
p156
(dp157
g6
(lp158
(lp159
F2.798721827452623
aF-2.253175211754851
aa(lp160
F2.658245126730188
aF-2.2078352280659113
aa(lp161
F3.219931771225905
aF-0.46756361262064516
aa(lp162
F3.3604084719483396
aF-0.512903596309585
aasg12
((lp163
F3.009326799339264
aF-1.3603694121877483
aF0.9173094624629288
tp164
sbsg32
F0.14761238961135295
sba(imodels.rectangle_obstacle
RectangleObstacle
p165
(dp166
g3
(imodels.polygon
Polygon
p167
(dp168
g6
(lp169
(lp170
F0.24901096225377384
aF0.1999622557204146
aa(lp171
F0.24901096225377384
aF-0.1999622557204146
aa(lp172
F-0.24901096225377384
aF-0.1999622557204146
aa(lp173
F-0.24901096225377384
aF0.1999622557204146
aasg12
((lp174
F0.0
aF0.0
aF0.3193608664745054
tp175
sbsg15
F0.4980219245075477
sg16
(imodels.pose
Pose
p176
(dp177
g19
F-1.7368046820869854
sg20
F1.0113714013124868
sg21
F-1.2301216469949445
sbsg22
(imodels.polygon
Polygon
p178
(dp179
g6
(lp180
(lp181
F1.2830420251104182
aF-1.9046928448638458
aa(lp182
F0.9061013937115835
aF-2.03831685188292
aa(lp183
F0.7397007775145553
aF-1.5689165193101249
aa(lp184
F1.1166414089133903
aF-1.4352925122910505
aasg12
((lp185
F1.0113714013124868
aF-1.7368046820869854
aF0.3193608664745055
tp186
sbsg32
F0.3999245114408292
sba(imodels.rectangle_obstacle
RectangleObstacle
p187
(dp188
g3
(imodels.polygon
Polygon
p189
(dp190
g6
(lp191
(lp192
F0.8623848542430675
aF0.3263917323810066
aa(lp193
F0.8623848542430675
aF-0.3263917323810066
aa(lp194
F-0.8623848542430675
aF-0.3263917323810066
aa(lp195
F-0.8623848542430675
aF0.3263917323810066
aasg12
((lp196
F0.0
aF0.0
aF0.9220841609064281
tp197
sbsg15
F1.724769708486135
sg16
(imodels.pose
Pose
p198
(dp199
g19
F-2.1950592324026825
sg20
F-0.7850195494315145
sg21
F2.69241934752503
sbsg22
(imodels.polygon
Polygon
p200
(dp201
g6
(lp202
(lp203
F-1.7035874680345264
aF-2.114609380272043
aa(lp204
F-1.4201351847928945
aF-1.5265778717694767
aa(lp205
F0.13354836917149748
aF-2.275509084533322
aa(lp206
F-0.1499039140701347
aF-2.8635405930358884
aasg12
((lp207
F-0.7850195494315145
aF-2.1950592324026825
aF0.9220841609064281
tp208
sbsg32
F0.6527834647620132
sba(imodels.rectangle_obstacle
RectangleObstacle
p209
(dp210
g3
(imodels.polygon
Polygon
p211
(dp212
g6
(lp213
(lp214
F0.1414582159360455
aF0.30958011331478175
aa(lp215
F0.1414582159360455
aF-0.30958011331478175
aa(lp216
F-0.1414582159360455
aF-0.30958011331478175
aa(lp217
F-0.1414582159360455
aF0.30958011331478175
aasg12
((lp218
F0.0
aF0.0
aF0.34036785015010157
tp219
sbsg15
F0.282916431872091
sg16
(imodels.pose
Pose
p220
(dp221
g19
F0.17618358392602657
sg20
F-2.2931449265009247
sg21
F-2.4115141538678273
sbsg22
(imodels.polygon
Polygon
p222
(dp223
g6
(lp224
(lp225
F-2.192080876757779
aF-0.14883384832233293
aa(lp226
F-2.60501624821316
aF0.31251608962171745
aa(lp227
F-2.3942089762440704
aF0.5012010161743861
aa(lp228
F-1.9812736047886896
aF0.03985107823033568
aasg12
((lp229
F-2.2931449265009247
aF0.17618358392602657
aF0.3403678501501016
tp230
sbsg32
F0.6191602266295635
sba(imodels.rectangle_obstacle
RectangleObstacle
p231
(dp232
g3
(imodels.polygon
Polygon
p233
(dp234
g6
(lp235
(lp236
F0.9737690318130936
aF0.3129558541616036
aa(lp237
F0.9737690318130936
aF-0.3129558541616036
aa(lp238
F-0.9737690318130936
aF-0.3129558541616036
aa(lp239
F-0.9737690318130936
aF0.3129558541616036
aasg12
((lp240
F0.0
aF0.0
aF1.0228232955756476
tp241
sbsg15
F1.9475380636261872
sg16
(imodels.pose
Pose
p242
(dp243
g19
F-5.9120010606941955
sg20
F0.5958463361746843
sg21
F2.9438012558095163
sbsg22
(imodels.polygon
Polygon
p244
(dp245
g6
(lp246
(lp247
F-0.42043425222364894
aF-6.027505431247722
aa(lp248
F-0.29743992840141875
aF-5.413797143114355
aa(lp249
F1.6121269245730177
aF-5.796496690140669
aa(lp250
F1.4891326007507875
aF-6.410204978274036
aasg12
((lp251
F0.5958463361746844
aF-5.912001060694196
aF1.022823295575648
tp252
sbsg32
F0.6259117083232072
sba(imodels.rectangle_obstacle
RectangleObstacle
p253
(dp254
g3
(imodels.polygon
Polygon
p255
(dp256
g6
(lp257
(lp258
F1.0239110228522432
aF0.20302871478061096
aa(lp259
F1.0239110228522432
aF-0.20302871478061096
aa(lp260
F-1.0239110228522432
aF-0.20302871478061096
aa(lp261
F-1.0239110228522432
aF0.20302871478061096
aasg12
((lp262
F0.0
aF0.0
aF1.0438459856433773
tp263
sbsg15
F2.0478220457044864
sg16
(imodels.pose
Pose
p264
(dp265
g19
F2.1233042017529287
sg20
F-2.762690679322012
sg21
F1.5568839553153122
sbsg22
(imodels.polygon
Polygon
p266
(dp267
g6
(lp268
(lp269
F-2.9514551749156923
aF3.149940654908113
aa(lp270
F-2.5454370417567733
aF3.14429161534257
aa(lp271
F-2.573926183728332
aF1.0966677485977443
aa(lp272
F-2.979944316887251
aF1.1023167881632872
aasg12
((lp273
F-2.762690679322012
aF2.1233042017529287
aF1.0438459856433773
tp274
sbsg32
F0.4060574295612219
sba(imodels.rectangle_obstacle
RectangleObstacle
p275
(dp276
g3
(imodels.polygon
Polygon
p277
(dp278
g6
(lp279
(lp280
F0.4016050707114249
aF0.6229150242873971
aa(lp281
F0.4016050707114249
aF-0.6229150242873971
aa(lp282
F-0.4016050707114249
aF-0.6229150242873971
aa(lp283
F-0.4016050707114249
aF0.6229150242873971
aasg12
((lp284
F0.0
aF0.0
aF0.7411543431054676
tp285
sbsg15
F0.8032101414228499
sg16
(imodels.pose
Pose
p286
(dp287
g19
F2.851460401844036
sg20
F0.400517170287786
sg21
F-1.1485425084387575
sbsg22
(imodels.polygon
Polygon
p288
(dp289
g6
(lp290
(lp291
F1.1333048022233236
aF2.7404106526934666
aa(lp292
F-0.0031010081634849085
aF2.2298478807927182
aa(lp293
F-0.33227046164775154
aF2.9625101509946057
aa(lp294
F0.8041353487390569
aF3.473072922895354
aasg12
((lp295
F0.400517170287786
aF2.8514604018440357
aF0.741154343105468
tp296
sbsg32
F1.2458300485747942
sba(imodels.rectangle_obstacle
RectangleObstacle
p297
(dp298
g3
(imodels.polygon
Polygon
p299
(dp300
g6
(lp301
(lp302
F0.3576745675787871
aF0.7117268701115939
aa(lp303
F0.3576745675787871
aF-0.7117268701115939
aa(lp304
F-0.3576745675787871
aF-0.7117268701115939
aa(lp305
F-0.3576745675787871
aF0.7117268701115939
aasg12
((lp306
F0.0
aF0.0
aF0.7965464417920137
tp307
sbsg15
F0.7153491351575741
sg16
(imodels.pose
Pose
p308
(dp309
g19
F-3.2203404570360994
sg20
F-0.318558320857658
sg21
F0.4769378694498485
sbsg22
(imodels.polygon
Polygon
p310
(dp311
g6
(lp312
(lp313
F-0.32752451388265563
aF-2.4238444800756653
aa(lp314
F0.3259274704895777
aF-3.6884476014838694
aa(lp315
F-0.3095921278326604
aF-4.0168364339965335
aa(lp316
F-0.9630441122048937
aF-2.7522333125883294
aasg12
((lp317
F-0.318558320857658
aF-3.2203404570360994
aF0.7965464417920138
tp318
sbsg32
F1.4234537402231877
sba(imodels.rectangle_obstacle
RectangleObstacle
p319
(dp320
g3
(imodels.polygon
Polygon
p321
(dp322
g6
(lp323
(lp324
F0.31810222995419335
aF0.380970054548677
aa(lp325
F0.31810222995419335
aF-0.380970054548677
aa(lp326
F-0.31810222995419335
aF-0.380970054548677
aa(lp327
F-0.31810222995419335
aF0.380970054548677
aasg12
((lp328
F0.0
aF0.0
aF0.49631362178027355
tp329
sbsg15
F0.6362044599083867
sg16
(imodels.pose
Pose
p330
(dp331
g19
F2.4372833219828944
sg20
F-4.445272754583148
sg21
F-2.5344122690644704
sbsg22
(imodels.polygon
Polygon
p332
(dp333
g6
(lp334
(lp335
F-4.48915337521471
aF1.9429133165237835
aa(lp336
F-4.923881423625804
aF2.5686642684015806
aa(lp337
F-4.401392133951586
aF2.9316533274420054
aa(lp338
F-3.9666640855404918
aF2.3059023755642083
aasg12
((lp339
F-4.445272754583147
aF2.4372833219828944
aF0.4963136217802746
tp340
sbsg32
F0.761940109097354
sba(imodels.rectangle_obstacle
RectangleObstacle
p341
(dp342
g3
(imodels.polygon
Polygon
p343
(dp344
g6
(lp345
(lp346
F0.4766200827855443
aF0.5199839060273305
aa(lp347
F0.4766200827855443
aF-0.5199839060273305
aa(lp348
F-0.4766200827855443
aF-0.5199839060273305
aa(lp349
F-0.4766200827855443
aF0.5199839060273305
aasg12
((lp350
F0.0
aF0.0
aF0.7053722179402437
tp351
sbsg15
F0.9532401655710886
sg16
(imodels.pose
Pose
p352
(dp353
g19
F0.05121059111659322
sg20
F-1.2933167554469425
sg21
F1.4958913773079887
sbsg22
(imodels.polygon
Polygon
p354
(dp355
g6
(lp356
(lp357
F-1.7761747656807798
aF0.5654071564444435
aa(lp358
F-0.7391230902257443
aF0.4875812446562571
aa(lp359
F-0.8104587452131051
aF-0.4629859742112571
aa(lp360
F-1.8475104206681405
aF-0.38516006242307066
aasg12
((lp361
F-1.2933167554469425
aF0.051210591116593235
aF0.7053722179402439
tp362
sbsg32
F1.039967812054661
sba(imodels.rectangle_obstacle
RectangleObstacle
p363
(dp364
g3
(imodels.polygon
Polygon
p365
(dp366
g6
(lp367
(lp368
F0.9488468408839569
aF0.05892887997167993
aa(lp369
F0.9488468408839569
aF-0.05892887997167993
aa(lp370
F-0.9488468408839569
aF-0.05892887997167993
aa(lp371
F-0.9488468408839569
aF0.05892887997167993
aasg12
((lp372
F0.0
aF0.0
aF0.9506749919663301
tp373
sbsg15
F1.8976936817679138
sg16
(imodels.pose
Pose
p374
(dp375
g19
F-1.6021273200310369
sg20
F4.238115704312649
sg21
F2.3587510363159634
sbsg22
(imodels.polygon
Polygon
p376
(dp377
g6
(lp378
(lp379
F3.523904238526181
aF-0.9746841572749771
aa(lp380
F3.6070289301889353
aF-0.891133351085936
aa(lp381
F4.9523271700991165
aF-2.2295704827870964
aa(lp382
F4.869202478436362
aF-2.313121288976138
aasg12
((lp383
F4.238115704312649
aF-1.6021273200310369
aF0.9506749919663302
tp384
sbsg32
F0.11785775994335985
sba(imodels.rectangle_obstacle
RectangleObstacle
p385
(dp386
g3
(imodels.polygon
Polygon
p387
(dp388
g6
(lp389
(lp390
F0.7032514866855091
aF0.4095000733058339
aa(lp391
F0.7032514866855091
aF-0.4095000733058339
aa(lp392
F-0.7032514866855091
aF-0.4095000733058339
aa(lp393
F-0.7032514866855091
aF0.4095000733058339
aasg12
((lp394
F0.0
aF0.0
aF0.813789262378696
tp395
sbsg15
F1.4065029733710182
sg16
(imodels.pose
Pose
p396
(dp397
g19
F-4.602239814928937
sg20
F2.4631870367556616
sg21
F-1.9889974340266485
sbsg22
(imodels.polygon
Polygon
p398
(dp399
g6
(lp400
(lp401
F2.5517942386163193
aF-5.4111908192186196
aa(lp402
F1.8033747221321632
aF-5.078580735944593
aa(lp403
F2.374579834895004
aF-3.793288810639254
aa(lp404
F3.12299935137916
aF-4.125898893913281
aasg12
((lp405
F2.4631870367556616
aF-4.602239814928937
aF0.813789262378696
tp406
sbsg32
F0.8190001466116678
sba(imodels.rectangle_obstacle
RectangleObstacle
p407
(dp408
g3
(imodels.polygon
Polygon
p409
(dp410
g6
(lp411
(lp412
F0.48177232981299417
aF0.8001415585361521
aa(lp413
F0.48177232981299417
aF-0.8001415585361521
aa(lp414
F-0.48177232981299417
aF-0.8001415585361521
aa(lp415
F-0.48177232981299417
aF0.8001415585361521
aasg12
((lp416
F0.0
aF0.0
aF0.9339866655740342
tp417
sbsg15
F0.9635446596259883
sg16
(imodels.pose
Pose
p418
(dp419
g19
F-1.6839317511024112
sg20
F1.5916440984795577
sg21
F-0.4014426979907561
sbsg22
(imodels.polygon
Polygon
p420
(dp421
g6
(lp422
(lp423
F2.3477673848521015
aF-1.1356538404810848
aa(lp424
F1.7224619586885728
aF-2.6087116054031183
aa(lp425
F0.8355208121070141
aF-2.2322096617237377
aa(lp426
F1.4608262382705426
aF-0.7591518968017039
aasg12
((lp427
F1.591644098479558
aF-1.6839317511024112
aF0.9339866655740344
tp428
sbsg32
F1.6002831170723042
sba(imodels.rectangle_obstacle
RectangleObstacle
p429
(dp430
g3
(imodels.polygon
Polygon
p431
(dp432
g6
(lp433
(lp434
F0.5171906947247169
aF0.1791552692606082
aa(lp435
F0.5171906947247169
aF-0.1791552692606082
aa(lp436
F-0.5171906947247169
aF-0.1791552692606082
aa(lp437
F-0.5171906947247169
aF0.1791552692606082
aasg12
((lp438
F0.0
aF0.0
aF0.5473415982854549
tp439
sbsg15
F1.0343813894494338
sg16
(imodels.pose
Pose
p440
(dp441
g19
F1.703806755469124
sg20
F-3.43741927885044
sg21
F-2.8282732478151433
sbsg22
(imodels.polygon
Polygon
p442
(dp443
g6
(lp444
(lp445
F-3.874212010352364
aF1.3739659833975613
aa(lp446
F-3.984649815051357
aF1.7148324283707077
aa(lp447
F-3.000626547348516
aF2.033647527540687
aa(lp448
F-2.8901887426495225
aF1.6927810825675405
aasg12
((lp449
F-3.43741927885044
aF1.703806755469124
aF0.5473415982854551
tp450
sbsg32
F0.3583105385212164
sba(imodels.rectangle_obstacle
RectangleObstacle
p451
(dp452
g3
(imodels.polygon
Polygon
p453
(dp454
g6
(lp455
(lp456
F1.1338026115397783
aF0.09474799087126402
aa(lp457
F1.1338026115397783
aF-0.09474799087126402
aa(lp458
F-1.1338026115397783
aF-0.09474799087126402
aa(lp459
F-1.1338026115397783
aF0.09474799087126402
aasg12
((lp460
F0.0
aF0.0
aF1.1377546061029868
tp461
sbsg15
F2.2676052230795567
sg16
(imodels.pose
Pose
p462
(dp463
g19
F-0.25767536545166914
sg20
F-2.693384844337853
sg21
F-2.9723627731621187
sbsg22
(imodels.polygon
Polygon
p464
(dp465
g6
(lp466
(lp467
F-3.795033051954851
aF-0.5420286147083258
aa(lp468
F-3.8269485869084177
aF-0.35523962754582683
aa(lp469
F-1.591736636720855
aF0.026677883804987534
aa(lp470
F-1.5598211017672885
aF-0.16011110335751144
aasg12
((lp471
F-2.6933848443378534
aF-0.25767536545166914
aF1.1377546061029873
tp472
sbsg32
F0.18949598174252805
sba(imodels.rectangle_obstacle
RectangleObstacle
p473
(dp474
g3
(imodels.polygon
Polygon
p475
(dp476
g6
(lp477
(lp478
F0.0644603950572011
aF0.7767565572012178
aa(lp479
F0.0644603950572011
aF-0.7767565572012178
aa(lp480
F-0.0644603950572011
aF-0.7767565572012178
aa(lp481
F-0.0644603950572011
aF0.7767565572012178
aasg12
((lp482
F0.0
aF0.0
aF0.7794266429151747
tp483
sbsg15
F0.1289207901144022
sg16
(imodels.pose
Pose
p484
(dp485
g19
F1.2745803506133564
sg20
F-3.173305084254287
sg21
F-1.6283530714769034
sbsg22
(imodels.polygon
Polygon
p486
(dp487
g6
(lp488
(lp489
F-2.4015428656204962
aF1.1655437990562374
aa(lp490
F-3.9524834676201612
aF1.254909596144794
aa(lp491
F-3.945067302888078
aF1.3836169021704754
aa(lp492
F-2.394126700888413
aF1.2942511050819188
aasg12
((lp493
F-3.173305084254287
aF1.2745803506133564
aF0.7794266429151749
tp494
sbsg32
F1.5535131144024357
sba(imodels.rectangle_obstacle
RectangleObstacle
p495
(dp496
g3
(imodels.polygon
Polygon
p497
(dp498
g6
(lp499
(lp500
F0.828394192506133
aF0.10305629880932368
aa(lp501
F0.828394192506133
aF-0.10305629880932368
aa(lp502
F-0.828394192506133
aF-0.10305629880932368
aa(lp503
F-0.828394192506133
aF0.10305629880932368
aasg12
((lp504
F0.0
aF0.0
aF0.8347799344151515
tp505
sbsg15
F1.656788385012266
sg16
(imodels.pose
Pose
p506
(dp507
g19
F-3.75482781778148
sg20
F1.531160771597782
sg21
F-2.9841032767095643
sbsg22
(imodels.polygon
Polygon
p508
(dp509
g6
(lp510
(lp511
F0.7291819158894346
aF-3.986533350514072
aa(lp512
F0.696855390972331
aF-3.782971569514076
aa(lp513
F2.3331396273061293
aF-3.523122285048888
aa(lp514
F2.3654661522232328
aF-3.726684066048884
aasg12
((lp515
F1.531160771597782
aF-3.75482781778148
aF0.8347799344151515
tp516
sbsg32
F0.20611259761864736
sba(imodels.rectangle_obstacle
RectangleObstacle
p517
(dp518
g3
(imodels.polygon
Polygon
p519
(dp520
g6
(lp521
(lp522
F0.8746914007687202
aF0.3249865926620506
aa(lp523
F0.8746914007687202
aF-0.3249865926620506
aa(lp524
F-0.8746914007687202
aF-0.3249865926620506
aa(lp525
F-0.8746914007687202
aF0.3249865926620506
aasg12
((lp526
F0.0
aF0.0
aF0.9331137829808515
tp527
sbsg15
F1.7493828015374404
sg16
(imodels.pose
Pose
p528
(dp529
g19
F2.149332479861833
sg20
F-2.389759709695724
sg21
F-1.6610311261745359
sbsg22
(imodels.polygon
Polygon
p530
(dp531
g6
(lp532
(lp533
F-2.1449158295056248
aF1.2489143512558551
aa(lp534
F-2.7922446653075057
aF1.3074849921925893
aa(lp535
F-2.6346035898858235
aF3.049750608467811
aa(lp536
F-1.9872747540839428
aF2.9911799675310773
aasg12
((lp537
F-2.389759709695724
aF2.149332479861833
aF0.9331137829808516
tp538
sbsg32
F0.6499731853241012
sba(imodels.rectangle_obstacle
RectangleObstacle
p539
(dp540
g3
(imodels.polygon
Polygon
p541
(dp542
g6
(lp543
(lp544
F0.9474065127124132
aF0.3152159974737776
aa(lp545
F0.9474065127124132
aF-0.3152159974737776
aa(lp546
F-0.9474065127124132
aF-0.3152159974737776
aa(lp547
F-0.9474065127124132
aF0.3152159974737776
aasg12
((lp548
F0.0
aF0.0
aF0.9984689406252377
tp549
sbsg15
F1.8948130254248263
sg16
(imodels.pose
Pose
p550
(dp551
g19
F-3.350379209734828
sg20
F4.9392519303323486
sg21
F-0.2508594790191543
sbsg22
(imodels.polygon
Polygon
p552
(dp553
g6
(lp554
(lp555
F5.935252230974983
aF-3.280210651868323
aa(lp556
F5.778755918573498
aF-3.8909097630992884
aa(lp557
F3.9432516296897133
aF-3.4205477676013327
aa(lp558
F4.0997479420911995
aF-2.8098486563703675
aasg12
((lp559
F4.9392519303323486
aF-3.350379209734828
aF0.998468940625238
tp560
sbsg32
F0.6304319949475552
sba(imodels.rectangle_obstacle
RectangleObstacle
p561
(dp562
g3
(imodels.polygon
Polygon
p563
(dp564
g6
(lp565
(lp566
F0.11163039029167492
aF0.3102153457403267
aa(lp567
F0.11163039029167492
aF-0.3102153457403267
aa(lp568
F-0.11163039029167492
aF-0.3102153457403267
aa(lp569
F-0.11163039029167492
aF0.3102153457403267
aasg12
((lp570
F0.0
aF0.0
aF0.32968910320097344
tp571
sbsg15
F0.22326078058334983
sg16
(imodels.pose
Pose
p572
(dp573
g19
F-0.3073832374349242
sg20
F-0.2637929093243808
sg21
F1.310558987876452
sbsg22
(imodels.polygon
Polygon
p574
(dp575
g6
(lp576
(lp577
F-0.5348393689105637
aF-0.11969007955414848
aa(lp578
F0.06470076086149629
aF-0.2793330428317796
aa(lp579
F0.007253550261802133
aF-0.4950763953156999
aa(lp580
F-0.5922865795102579
aF-0.33543343203806875
aasg12
((lp581
F-0.2637929093243808
aF-0.3073832374349242
aF0.32968910320097344
tp582
sbsg32
F0.6204306914806534
sba(imodels.rectangle_obstacle
RectangleObstacle
p583
(dp584
g3
(imodels.polygon
Polygon
p585
(dp586
g6
(lp587
(lp588
F0.3835986465001635
aF0.45056922429721813
aa(lp589
F0.3835986465001635
aF-0.45056922429721813
aa(lp590
F-0.3835986465001635
aF-0.45056922429721813
aa(lp591
F-0.3835986465001635
aF0.45056922429721813
aasg12
((lp592
F0.0
aF0.0
aF0.5917436501396143
tp593
sbsg15
F0.767197293000327
sg16
(imodels.pose
Pose
p594
(dp595
g19
F4.229157300444485
sg20
F0.6934650611753385
sg21
F-0.7122833426232291
sbsg22
(imodels.polygon
Polygon
p596
(dp597
g6
(lp598
(lp599
F1.2782756356524114
aF4.3194741840286195
aa(lp600
F0.6893242837449329
aF3.637428138206535
aa(lp601
F0.10865448669826538
aF4.138840416860351
aa(lp602
F0.697605838605744
aF4.820886462682435
aasg12
((lp603
F0.6934650611753383
aF4.229157300444485
aF0.5917436501396145
tp604
sbsg32
F0.9011384485944363
sba(imodels.rectangle_obstacle
RectangleObstacle
p605
(dp606
g3
(imodels.polygon
Polygon
p607
(dp608
g6
(lp609
(lp610
F0.671063610507958
aF0.6241783886862692
aa(lp611
F0.671063610507958
aF-0.6241783886862692
aa(lp612
F-0.671063610507958
aF-0.6241783886862692
aa(lp613
F-0.671063610507958
aF0.6241783886862692
aasg12
((lp614
F0.0
aF0.0
aF0.9164742387273981
tp615
sbsg15
F1.342127221015916
sg16
(imodels.pose
Pose
p616
(dp617
g19
F2.2835012265547068
sg20
F-3.3007519927848046
sg21
F-2.284179788714063
sbsg22
(imodels.polygon
Polygon
p618
(dp619
g6
(lp620
(lp621
F-3.2679194941824963
aF1.3676152853554255
aa(lp622
F-4.211867073801725
aF2.1845348716936086
aa(lp623
F-3.333584491387113
aF3.1993871677539882
aa(lp624
F-2.3896369117678833
aF2.382467581415805
aasg12
((lp625
F-3.3007519927848046
aF2.2835012265547068
aF0.9164742387273983
tp626
sbsg32
F1.2483567773725384
sba(imodels.rectangle_obstacle
RectangleObstacle
p627
(dp628
g3
(imodels.polygon
Polygon
p629
(dp630
g6
(lp631
(lp632
F0.8679753971288983
aF0.16433665372127543
aa(lp633
F0.8679753971288983
aF-0.16433665372127543
aa(lp634
F-0.8679753971288983
aF-0.16433665372127543
aa(lp635
F-0.8679753971288983
aF0.16433665372127543
aasg12
((lp636
F0.0
aF0.0
aF0.8833956224576704
tp637
sbsg15
F1.7359507942577965
sg16
(imodels.pose
Pose
p638
(dp639
g19
F5.101625927781055
sg20
F2.3837075813709725
sg21
F0.06622296570682584
sbsg22
(imodels.polygon
Polygon
p640
(dp641
g6
(lp642
(lp643
F3.2389055211667563
aF5.323040266852448
aa(lp644
F3.2606553369621922
aF4.995087391368652
aa(lp645
F1.5285096415751886
aF4.8802115887096615
aa(lp646
F1.5067598257797525
aF5.208164464193458
aasg12
((lp647
F2.3837075813709725
aF5.101625927781055
aF0.8833956224576704
tp648
sbsg32
F0.32867330744255085
sba(imodels.rectangle_obstacle
RectangleObstacle
p649
(dp650
g3
(imodels.polygon
Polygon
p651
(dp652
g6
(lp653
(lp654
F1.0136737985448145
aF0.1673288680005664
aa(lp655
F1.0136737985448145
aF-0.1673288680005664
aa(lp656
F-1.0136737985448145
aF-0.1673288680005664
aa(lp657
F-1.0136737985448145
aF0.1673288680005664
aasg12
((lp658
F0.0
aF0.0
aF1.0273916098171252
tp659
sbsg15
F2.027347597089629
sg16
(imodels.pose
Pose
p660
(dp661
g19
F-1.5620260153958747
sg20
F0.7059253075988918
sg21
F-0.7136866153317287
sbsg22
(imodels.polygon
Polygon
p662
(dp663
g6
(lp664
(lp665
F1.5817534142279903
aF-2.0991094796368737
aa(lp666
F1.3626780524235138
aF-2.3520952225467098
aa(lp667
F-0.16990279903020666
aF-1.0249425511548755
aa(lp668
F0.049172562774269846
aF-0.7719568082450396
aasg12
((lp669
F0.7059253075988917
aF-1.5620260153958747
aF1.0273916098171254
tp670
sbsg32
F0.3346577360011328
sba(imodels.rectangle_obstacle
RectangleObstacle
p671
(dp672
g3
(imodels.polygon
Polygon
p673
(dp674
g6
(lp675
(lp676
F0.3798310175309407
aF0.3892786077489956
aa(lp677
F0.3798310175309407
aF-0.3892786077489956
aa(lp678
F-0.3798310175309407
aF-0.3892786077489956
aa(lp679
F-0.3798310175309407
aF0.3892786077489956
aasg12
((lp680
F0.0
aF0.0
aF0.5438836606569333
tp681
sbsg15
F0.7596620350618813
sg16
(imodels.pose
Pose
p682
(dp683
g19
F4.127420109768593
sg20
F0.8934726152430392
sg21
F-2.3208266677581597
sbsg22
(imodels.polygon
Polygon
p684
(dp685
g6
(lp686
(lp687
F0.9193794124045214
aF3.5841538084113123
aa(lp688
F0.34973386609612156
aF4.114865867229454
aa(lp689
F0.8675658180815571
aF4.670686411125875
aa(lp690
F1.437211364389957
aF4.139974352307733
aasg12
((lp691
F0.8934726152430392
aF4.127420109768593
aF0.5438836606569337
tp692
sbsg32
F0.7785572154979912
sba(imodels.rectangle_obstacle
RectangleObstacle
p693
(dp694
g3
(imodels.polygon
Polygon
p695
(dp696
g6
(lp697
(lp698
F0.22050979328553943
aF0.19023262524281093
aa(lp699
F0.22050979328553943
aF-0.19023262524281093
aa(lp700
F-0.22050979328553943
aF-0.19023262524281093
aa(lp701
F-0.22050979328553943
aF0.19023262524281093
aasg12
((lp702
F0.0
aF0.0
aF0.2912267512465211
tp703
sbsg15
F0.44101958657107887
sg16
(imodels.pose
Pose
p704
(dp705
g19
F1.1707720476357484
sg20
F5.712258615748023
sg21
F2.8198370254744036
sbsg22
(imodels.polygon
Polygon
p706
(dp707
g6
(lp708
(lp709
F5.442907257841345
aF1.0600342192507208
aa(lp710
F5.563222765361164
aF1.420974637432635
aa(lp711
F5.981609973654701
aF1.281509876020776
aa(lp712
F5.861294466134881
aF0.9205694578388617
aasg12
((lp713
F5.712258615748022
aF1.1707720476357484
aF0.29122675124652203
tp714
sbsg32
F0.38046525048562185
sba(imodels.rectangle_obstacle
RectangleObstacle
p715
(dp716
g3
(imodels.polygon
Polygon
p717
(dp718
g6
(lp719
(lp720
F0.36414352901990404
aF0.2695850376372723
aa(lp721
F0.36414352901990404
aF-0.2695850376372723
aa(lp722
F-0.36414352901990404
aF-0.2695850376372723
aa(lp723
F-0.36414352901990404
aF0.2695850376372723
aasg12
((lp724
F0.0
aF0.0
aF0.4530746100202032
tp725
sbsg15
F0.7282870580398081
sg16
(imodels.pose
Pose
p726
(dp727
g19
F0.28060741564995734
sg20
F1.416001332997774
sg21
F-1.4457054955626725
sbsg22
(imodels.polygon
Polygon
p728
(dp729
g6
(lp730
(lp731
F1.7289122392258363
aF-0.04705608095668662
aa(lp732
F1.1939550562612207
aF-0.11432555743837974
aa(lp733
F1.103090426769712
aF0.6082709122566012
aa(lp734
F1.6380476097343275
aF0.6755403887382945
aasg12
((lp735
F1.416001332997774
aF0.28060741564995734
aF0.4530746100202033
tp736
sbsg32
F0.5391700752745446
sba(imodels.rectangle_obstacle
RectangleObstacle
p737
(dp738
g3
(imodels.polygon
Polygon
p739
(dp740
g6
(lp741
(lp742
F1.1457396774887851
aF0.13521469527185773
aa(lp743
F1.1457396774887851
aF-0.13521469527185773
aa(lp744
F-1.1457396774887851
aF-0.13521469527185773
aa(lp745
F-1.1457396774887851
aF0.13521469527185773
aasg12
((lp746
F0.0
aF0.0
aF1.1536907828311567
tp747
sbsg15
F2.2914793549775703
sg16
(imodels.pose
Pose
p748
(dp749
g19
F-5.635120135493554
sg20
F-0.9557345933141032
sg21
F2.652190922310135
sbsg22
(imodels.polygon
Polygon
p750
(dp751
g6
(lp752
(lp753
F-2.0305449211594127
aF-5.215852701095621
aa(lp754
F-1.9034166239593273
aF-4.977167864290155
aa(lp755
F0.11907573453120646
aF-6.054387569891487
aa(lp756
F-0.008052562668878993
aF-6.293072406696953
aasg12
((lp757
F-0.955734593314103
aF-5.635120135493554
aF1.1536907828311567
tp758
sbsg32
F0.27042939054371545
sba(imodels.rectangle_obstacle
RectangleObstacle
p759
(dp760
g3
(imodels.polygon
Polygon
p761
(dp762
g6
(lp763
(lp764
F0.7906574149510941
aF0.09560192214741248
aa(lp765
F0.7906574149510941
aF-0.09560192214741248
aa(lp766
F-0.7906574149510941
aF-0.09560192214741248
aa(lp767
F-0.7906574149510941
aF0.09560192214741248
aasg12
((lp768
F0.0
aF0.0
aF0.7964162701347999
tp769
sbsg15
F1.5813148299021882
sg16
(imodels.pose
Pose
p770
(dp771
g19
F1.6344122178927452
sg20
F-1.0742556879949121
sg21
F1.1167475851855606
sbsg22
(imodels.polygon
Polygon
p772
(dp773
g6
(lp774
(lp775
F-0.8133827153982371
aF2.3868909003177032
aa(lp776
F-0.6415519000721266
aF2.303027434031818
aa(lp777
F-1.335128660591587
aF0.881933535467787
aa(lp778
F-1.5069594759176976
aF0.965797001753672
aasg12
((lp779
F-1.0742556879949121
aF1.634412217892745
aF0.7964162701348001
tp780
sbsg32
F0.19120384429482495
sba(imodels.rectangle_obstacle
RectangleObstacle
p781
(dp782
g3
(imodels.polygon
Polygon
p783
(dp784
g6
(lp785
(lp786
F0.3625048363581205
aF0.8822911261430957
aa(lp787
F0.3625048363581205
aF-0.8822911261430957
aa(lp788
F-0.3625048363581205
aF-0.8822911261430957
aa(lp789
F-0.3625048363581205
aF0.8822911261430957
aasg12
((lp790
F0.0
aF0.0
aF0.9538592074587736
tp791
sbsg15
F0.725009672716241
sg16
(imodels.pose
Pose
p792
(dp793
g19
F2.3436150971091307
sg20
F-3.227402435946397
sg21
F1.7972242717826319
sbsg22
(imodels.polygon
Polygon
p794
(dp795
g6
(lp796
(lp797
F-4.1685543083278604
aF2.49879415744507
aa(lp798
F-2.4490138478258245
aF2.894939496657656
aa(lp799
F-2.2862505635649333
aF2.1884360367731914
aa(lp800
F-4.005791024066969
aF1.7922906975606057
aasg12
((lp801
F-3.227402435946397
aF2.3436150971091307
aF0.9538592074587736
tp802
sbsg32
F1.7645822522861914
sba(imodels.rectangle_obstacle
RectangleObstacle
p803
(dp804
g3
(imodels.polygon
Polygon
p805
(dp806
g6
(lp807
(lp808
F1.2012596342745165
aF0.06064099278928641
aa(lp809
F1.2012596342745165
aF-0.06064099278928641
aa(lp810
F-1.2012596342745165
aF-0.06064099278928641
aa(lp811
F-1.2012596342745165
aF0.06064099278928641
aasg12
((lp812
F0.0
aF0.0
aF1.2027892745380695
tp813
sbsg15
F2.402519268549033
sg16
(imodels.pose
Pose
p814
(dp815
g19
F4.654008468105403
sg20
F-1.2311408024916857
sg21
F-0.42749583586976536
sbsg22
(imodels.polygon
Polygon
p816
(dp817
g6
(lp818
(lp819
F-0.11284500369936667
aF4.211157990689758
aa(lp820
F-0.16312770212697458
aF4.100790557700133
aa(lp821
F-2.3494366012840047
aF5.096858945521047
aa(lp822
F-2.2991539028563968
aF5.207226378510672
aasg12
((lp823
F-1.2311408024916857
aF4.654008468105403
aF1.2027892745380693
tp824
sbsg32
F0.12128198557857282
sba(imodels.rectangle_obstacle
RectangleObstacle
p825
(dp826
g3
(imodels.polygon
Polygon
p827
(dp828
g6
(lp829
(lp830
F1.164248477729918
aF0.0824401317473404
aa(lp831
F1.164248477729918
aF-0.0824401317473404
aa(lp832
F-1.164248477729918
aF-0.0824401317473404
aa(lp833
F-1.164248477729918
aF0.0824401317473404
aasg12
((lp834
F0.0
aF0.0
aF1.1671636103044638
tp835
sbsg15
F2.328496955459836
sg16
(imodels.pose
Pose
p836
(dp837
g19
F-1.2669961873452187
sg20
F-1.1300155560842404
sg21
F0.6915569596869857
sbsg22
(imodels.polygon
Polygon
p838
(dp839
g6
(lp840
(lp841
F-0.28582362786019255
aF-0.4610117696668652
aa(lp842
F-0.1806733487720925
aF-0.5880114550907671
aa(lp843
F-1.9742074843082884
aF-2.072980605023572
aa(lp844
F-2.0793577633963882
aF-1.9459809195996702
aasg12
((lp845
F-1.1300155560842404
aF-1.2669961873452187
aF1.1671636103044638
tp846
sbsg32
F0.1648802634946808
sba(imodels.rectangle_obstacle
RectangleObstacle
p847
(dp848
g3
(imodels.polygon
Polygon
p849
(dp850
g6
(lp851
(lp852
F0.4943627178677553
aF0.5433563748231521
aa(lp853
F0.4943627178677553
aF-0.5433563748231521
aa(lp854
F-0.4943627178677553
aF-0.5433563748231521
aa(lp855
F-0.4943627178677553
aF0.5433563748231521
aasg12
((lp856
F0.0
aF0.0
aF0.7345955668791854
tp857
sbsg15
F0.9887254357355106
sg16
(imodels.pose
Pose
p858
(dp859
g19
F-2.9131227872889234
sg20
F3.4972563438815705
sg21
F1.6878969676296434
sbsg22
(imodels.polygon
Polygon
p860
(dp861
g6
(lp862
(lp863
F2.899863139442433
aF-2.4856277508633635
aa(lp864
F3.979133592397749
aF-2.358663623561757
aa(lp865
F4.0946495483207075
aF-3.3406178237144832
aa(lp866
F3.015379095365392
aF-3.46758195101609
aasg12
((lp867
F3.49725634388157
aF-2.9131227872889234
aF0.7345955668791857
tp868
sbsg32
F1.0867127496463043
sba(imodels.rectangle_obstacle
RectangleObstacle
p869
(dp870
g3
(imodels.polygon
Polygon
p871
(dp872
g6
(lp873
(lp874
F0.3217469876969327
aF0.8078099973687011
aa(lp875
F0.3217469876969327
aF-0.8078099973687011
aa(lp876
F-0.3217469876969327
aF-0.8078099973687011
aa(lp877
F-0.3217469876969327
aF0.8078099973687011
aasg12
((lp878
F0.0
aF0.0
aF0.8695275245447214
tp879
sbsg15
F0.6434939753938654
sg16
(imodels.pose
Pose
p880
(dp881
g19
F1.1548317991462476
sg20
F-1.358127963326064
sg21
F-1.554238769769214
sbsg22
(imodels.polygon
Polygon
p882
(dp883
g6
(lp884
(lp885
F-0.5451015943890328
aF0.8465036633007855
aa(lp886
F-2.160500130898401
aF0.8197541653863374
aa(lp887
F-2.171154332263095
aF1.4631599349917095
aa(lp888
F-0.5557557957537268
aF1.4899094329061577
aasg12
((lp889
F-1.3581279633260637
aF1.1548317991462476
aF0.8695275245447215
tp890
sbsg32
F1.6156199947374021
sba(imodels.rectangle_obstacle
RectangleObstacle
p891
(dp892
g3
(imodels.polygon
Polygon
p893
(dp894
g6
(lp895
(lp896
F0.8685440249921916
aF0.2010267055312291
aa(lp897
F0.8685440249921916
aF-0.2010267055312291
aa(lp898
F-0.8685440249921916
aF-0.2010267055312291
aa(lp899
F-0.8685440249921916
aF0.2010267055312291
aasg12
((lp900
F0.0
aF0.0
aF0.8915046044112034
tp901
sbsg15
F1.7370880499843833
sg16
(imodels.pose
Pose
p902
(dp903
g19
F-3.4866390259333024
sg20
F1.3950248663248852
sg21
F0.138757042764039
sbsg22
(imodels.polygon
Polygon
p904
(dp905
g6
(lp906
(lp907
F2.227416586363854
aF-3.1674142084504773
aa(lp908
F2.2830254826002387
aF-3.565603354468207
aa(lp909
F0.5626331462859163
aF-3.8058638434161276
aa(lp910
F0.5070242500495316
aF-3.407674697398398
aasg12
((lp911
F1.3950248663248852
aF-3.486639025933303
aF0.8915046044112036
tp912
sbsg32
F0.4020534110624582
sba(imodels.rectangle_obstacle
RectangleObstacle
p913
(dp914
g3
(imodels.polygon
Polygon
p915
(dp916
g6
(lp917
(lp918
F0.25638657384736174
aF0.9135465829371038
aa(lp919
F0.25638657384736174
aF-0.9135465829371038
aa(lp920
F-0.25638657384736174
aF-0.9135465829371038
aa(lp921
F-0.25638657384736174
aF0.9135465829371038
aasg12
((lp922
F0.0
aF0.0
aF0.9488421546523148
tp923
sbsg15
F0.5127731476947235
sg16
(imodels.pose
Pose
p924
(dp925
g19
F0.8229035200764409
sg20
F3.00957889789678
sg21
F-0.8686695694279796
sbsg22
(imodels.polygon
Polygon
p926
(dp927
g6
(lp928
(lp929
F3.8726300788383767
aF1.2171675097084667
aa(lp930
F2.4776985946492207
aF0.03715242878700986
aa(lp931
F2.146527716955183
aF0.4286395304444151
aa(lp932
F3.541459201144339
aF1.6086546113658717
aasg12
((lp933
F3.0095788978967795
aF0.8229035200764409
aF0.948842154652315
tp934
sbsg32
F1.8270931658742076
sba(imodels.rectangle_obstacle
RectangleObstacle
p935
(dp936
g3
(imodels.polygon
Polygon
p937
(dp938
g6
(lp939
(lp940
F0.5722078840434167
aF0.5646874346669403
aa(lp941
F0.5722078840434167
aF-0.5646874346669403
aa(lp942
F-0.5722078840434167
aF-0.5646874346669403
aa(lp943
F-0.5722078840434167
aF0.5646874346669403
aasg12
((lp944
F0.0
aF0.0
aF0.8039239773959813
tp945
sbsg15
F1.1444157680868334
sg16
(imodels.pose
Pose
p946
(dp947
g19
F-3.006923254406831
sg20
F-1.957923841140002
sg21
F-1.2748776256458951
sbsg22
(imodels.polygon
Polygon
p948
(dp949
g6
(lp950
(lp951
F-1.2509142080097253
aF-3.389586474605958
aa(lp952
F-2.331200387045188
aF-3.7189333538501383
aa(lp953
F-2.6649334742702786
aF-2.6242600342077043
aa(lp954
F-1.584647295234816
aF-2.294913154963524
aasg12
((lp955
F-1.9579238411400022
aF-3.006923254406831
aF0.8039239773959816
tp956
sbsg32
F1.1293748693338805
sba(imodels.rectangle_obstacle
RectangleObstacle
p957
(dp958
g3
(imodels.polygon
Polygon
p959
(dp960
g6
(lp961
(lp962
F0.6854995934060252
aF0.1965532800156654
aa(lp963
F0.6854995934060252
aF-0.1965532800156654
aa(lp964
F-0.6854995934060252
aF-0.1965532800156654
aa(lp965
F-0.6854995934060252
aF0.1965532800156654
aasg12
((lp966
F0.0
aF0.0
aF0.7131219281754996
tp967
sbsg15
F1.3709991868120504
sg16
(imodels.pose
Pose
p968
(dp969
g19
F1.2490903344298085
sg20
F5.234750479895417
sg21
F-0.5830641950217519
sbsg22
(imodels.polygon
Polygon
p970
(dp971
g6
(lp972
(lp973
F5.915210648046335
aF1.0357435650500808
aa(lp974
F5.6987722909864775
aF0.7075862778646578
aa(lp975
F4.554290311744499
aF1.4624371038095363
aa(lp976
F4.770728668804356
aF1.7905943909949593
aasg12
((lp977
F5.234750479895417
aF1.2490903344298085
aF0.7131219281754997
tp978
sbsg32
F0.3931065600313308
sba(imodels.rectangle_obstacle
RectangleObstacle
p979
(dp980
g3
(imodels.polygon
Polygon
p981
(dp982
g6
(lp983
(lp984
F0.7604125106463316
aF0.06084555980668771
aa(lp985
F0.7604125106463316
aF-0.06084555980668771
aa(lp986
F-0.7604125106463316
aF-0.06084555980668771
aa(lp987
F-0.7604125106463316
aF0.06084555980668771
aasg12
((lp988
F0.0
aF0.0
aF0.7628429513967122
tp989
sbsg15
F1.5208250212926633
sg16
(imodels.pose
Pose
p990
(dp991
g19
F-1.6177505683044846
sg20
F1.0550214575337256
sg21
F2.762203769776532
sbsg22
(imodels.polygon
Polygon
p992
(dp993
g6
(lp994
(lp995
F0.3261466872330888
aF-1.3926485076412365
aa(lp996
F0.37121534363266495
aF-1.2796107051011403
aa(lp997
F1.7838962278343624
aF-1.8428526289677327
aa(lp998
F1.7388275714347863
aF-1.955890431507829
aasg12
((lp999
F1.0550214575337256
aF-1.6177505683044846
aF0.7628429513967123
tp1000
sbsg32
F0.12169111961337542
sba(imodels.rectangle_obstacle
RectangleObstacle
p1001
(dp1002
g3
(imodels.polygon
Polygon
p1003
(dp1004
g6
(lp1005
(lp1006
F0.9041373410380202
aF0.17076732213767407
aa(lp1007
F0.9041373410380202
aF-0.17076732213767407
aa(lp1008
F-0.9041373410380202
aF-0.17076732213767407
aa(lp1009
F-0.9041373410380202
aF0.17076732213767407
aasg12
((lp1010
F0.0
aF0.0
aF0.9201227145165874
tp1011
sbsg15
F1.8082746820760405
sg16
(imodels.pose
Pose
p1012
(dp1013
g19
F-3.3249306275816988
sg20
F3.508375878304204
sg21
F-1.2097676945199964
sbsg22
(imodels.polygon
Polygon
p1014
(dp1015
g6
(lp1016
(lp1017
F3.9875090360196253
aF-4.110460529588632
aa(lp1018
F3.6679917750625033
aF-4.23110311407167
aa(lp1019
F3.029242720588783
aF-2.5394007255747653
aa(lp1020
F3.348759981545905
aF-2.418758141091727
aasg12
((lp1021
F3.508375878304204
aF-3.3249306275816988
aF0.9201227145165877
tp1022
sbsg32
F0.34153464427534813
sba(imodels.rectangle_obstacle
RectangleObstacle
p1023
(dp1024
g3
(imodels.polygon
Polygon
p1025
(dp1026
g6
(lp1027
(lp1028
F0.36248095437250977
aF0.6245453498222248
aa(lp1029
F0.36248095437250977
aF-0.6245453498222248
aa(lp1030
F-0.36248095437250977
aF-0.6245453498222248
aa(lp1031
F-0.36248095437250977
aF0.6245453498222248
aasg12
((lp1032
F0.0
aF0.0
aF0.7221144897226275
tp1033
sbsg15
F0.7249619087450195
sg16
(imodels.pose
Pose
p1034
(dp1035
g19
F0.9339579727955921
sg20
F5.21759480327055
sg21
F-2.739198790714301
sbsg22
(imodels.polygon
Polygon
p1036
(dp1037
g6
(lp1038
(lp1039
F5.12865237405648
aF0.21734191063059238
aa(lp1040
F4.639480828529575
aF1.3666629166968176
aa(lp1041
F5.30653723248462
aF1.650574034960592
aa(lp1042
F5.795708778011524
aF0.5012530288943666
aasg12
((lp1043
F5.21759480327055
aF0.9339579727955921
aF0.7221144897226276
tp1044
sbsg32
F1.2490906996444495
sba.(lp0
F3.071388951581505
aF2.3155876649788603
a.