(lp0
(imodels.circular_obstacle
CircularObstacle
p1
(dp2
S'global_geometry'
p3
(imodels.polygon
Polygon
p4
(dp5
S'vertexes'
p6
(lp7
(lp8
F0.21999999999999997
aF0.0
aa(lp9
F0.2124115568395486
aF0.08678052022690337
aa(lp10
F0.18987656523659202
aF0.17092692427310172
aa(lp11
F0.1530790472027314
aF0.24988505132155123
aa(lp12
F0.1031359462341494
aF0.3212582243356004
aa(lp13
F0.04156322386267286
aF0.3828799982488567
aa(lp14
F-0.029770155495897233
aF0.43287991974617224
aa(lp15
F-0.10869895466273916
aF0.46974030257830945
aa(lp16
F-0.19282738681305195
aF0.49234229506529165
aa(lp17
F-0.2796018366446335
aF0.4999998414659173
aa(lp18
F-0.36638837223617804
aF0.49248050635774765
aa(lp19
F-0.45055269481797
aF0.4700125299290737
aa(lp20
F-0.5295400996778101
aF0.43327790002813277
aa(lp21
F-0.6009530210870164
aF0.38339165125901903
aa(lp22
F-0.6626238074654468
aF0.32186801947482246
aa(lp23
F-0.7126805177847291
aF0.25057447900681895
aa(lp24
F-0.749603742040635
aF0.17167505777320374
aa(lp25
F-0.7722727210788982
aF0.08756465086767165
aa(lp26
F-0.7799993658637698
aF0.0007963264582431921
aa(lp27
F-0.7725491435761656
aF-0.08599616946344722
aa(lp28
F-0.7501481965695342
aF-0.1701783572091782
aa(lp29
F-0.7134764780962765
aF-0.2491949897916256
aa(lp30
F-0.6636471131613136
aF-0.3206476143104611
aa(lp31
F-0.6021726109787674
aF-0.38236737404637944
aa(lp32
F-0.5309189546111543
aF-0.43248084144484994
aa(lp33
F-0.4520489613437553
aF-0.4694668837101665
aa(lp34
F-0.36795663302046905
aF-0.49220283492448774
aa(lp35
F-0.28119448905614036
aF-0.499998573193859
aa(lp36
F-0.19439608784257886
aF-0.49261746845127663
aa(lp37
F-0.11019608831589284
aF-0.47028356507194247
aa(lp38
F-0.031150278118155017
aF-0.4336747812812366
aa(lp39
F0.04034200419960432
aF-0.3839023317790355
aa(lp40
F0.1021106981542686
aF-0.3224769981813546
aa(lp41
F0.15228089085315688
aF-0.25126327109866464
aa(lp42
F0.18932972767369105
aF-0.17242275581180974
aa(lp43
F0.2121326366463775
aF-0.08834855939676967
aasS'bounding_circle'
p44
((lp45
F-0.28025292815156067
aF2.2523034719203194e-05
aF0.5002529286585913
tp46
sbsS'geometry'
p47
(imodels.polygon
Polygon
p48
(dp49
g6
g7
sg44
((lp50
F-0.28025292815156067
aF2.2523034719203194e-05
aF0.5002529286585913
tp51
sbsS'pose'
p52
(imodels.pose
Pose
p53
(dp54
S'y'
p55
F0.0
sS'x'
p56
F-0.28
sS'theta'
p57
F1.0
sbsS'radius'
p58
F0.5
sg55
F0.0
sg56
F-0.28
sba.(lp0
F2.3500302005110654
aF-1.1281602393531676
a.