(lp0
(imodels.circular_obstacle
CircularObstacle
p1
(dp2
S'global_geometry'
p3
(imodels.polygon
Polygon
p4
(dp5
S'vertexes'
p6
(lp7
(lp8
F2.0353780676353144
aF6.8932965987469
aa(lp9
F1.8330313490821966
aF6.892083020294631
aa(lp10
F1.633966253612815
aF6.85576835318008
aa(lp11
F1.4442251578759668
aF6.785454884552407
aa(lp12
F1.2695674199524554
aF6.683276893451991
aa(lp13
F1.1152945611093434
aF6.552335867389691
aa(lp14
F0.9860893446287564
aF6.396606360500087
aa(lp15
F0.8858736362758797
aF6.220815350828927
aa(lp16
F0.8176893608771958
aF6.030298758716243
aa(lp17
F0.7836061684259015
aF5.830839481483514
aa(lp18
F0.7846586123965706
aF5.6284918606831615
aa(lp19
F0.8208147471441993
aF5.42939790999157
aa(lp20
F0.890977097575052
aF5.2396008819223905
aa(lp21
F0.9930159716561353
aF5.064861832313724
aa(lp22
F1.1238341046029658
aF4.910484750549041
aa(lp23
F1.2794606725506514
aF4.781155563469329
aa(lp24
F1.455171822038682
aF4.680799899815156
aa(lp25
F1.645634056784868
aF4.612463932584397
aa(lp26
F1.8450661294188744
aF4.578221916189635
aa(lp27
F2.047414524150483
aF4.5791132250113105
aa(lp28
F2.246537203811578
aF4.6151108044641
aa(lp29
F2.436390043855897
aF4.685121992205635
aa(lp30
F2.611210294341336
aF4.787021684560828
aa(lp31
F2.7656915011314758
aF4.917716841435659
aa(lp32
F2.8951445767979767
aF5.073240371752965
aa(lp33
F2.9956401321142745
aF5.2488715496330425
aa(lp34
F3.0641277478427873
aF5.439279306233708
aa(lp35
F3.098528566466912
aF5.638684047801869
aa(lp36
F3.09779839335944
aF5.841033088148265
aa(lp37
F3.0619593920288652
aF6.040184370507936
aa(lp38
F2.9920994113732844
aF6.230092902134815
aa(lp39
F2.8903389653622784
aF6.404994242637154
aa(lp40
F2.7597668674379943
aF6.559579476490605
aa(lp41
F2.6043464733741883
aF6.689156358652994
aa(lp42
F2.4287953784761744
aF6.789791741903535
aa(lp43
F2.2384422207655064
aF6.858430962699317
aasS'bounding_circle'
p44
((lp45
F1.941044061842619
aF5.735102141192684
aF1.1620298215442686
tp46
sbsS'geometry'
p47
(imodels.polygon
Polygon
p48
(dp49
g6
(lp50
(lp51
F4.7758888694635395
aF1.9730676358292554
aa(lp52
F4.758261791746707
aF2.1746487694034053
aa(lp53
F4.705915606905565
aF2.3701111550801683
aa(lp54
F4.6204392191334485
aF2.5535217720446868
aa(lp55
F4.504427159271033
aF2.7193134161295265
aa(lp56
F4.361400831007092
aF2.862453685464225
aa(lp57
F4.195701622991541
aF2.9785977328575095
aa(lp58
F4.01235913131141
aF3.0642201483011062
aa(lp59
F3.8169384922747414
aF3.1167219684635974
aa(lp60
F3.6153714595283692
aF3.1345095650324897
aa(lp61
F3.4137763529563614
aF3.1170430173456873
aa(lp62
F3.2182723445893044
aF3.0648525010205123
aa(lp63
F3.034793718647734
aF2.9795221951235575
aa(lp64
F2.868909743628111
aF2.863642196359475
aa(lp65
F2.7256556239931005
aF2.720729899864482
aa(lp66
F2.6093796627201056
aF2.5551232329941063
aa(lp67
F2.523611273901314
aF2.3718489828624985
aa(lp68
F2.470953851710785
aF2.1764702143892505
aa(lp69
F2.4530057475695943
aF1.9749174102916351
aa(lp70
F2.470311754150194
aF1.7733084585605507
aa(lp71
F2.5223465688635
aF1.577762951479394
aa(lp72
F2.607530738774245
aF1.3942164329112345
aa(lp73
F2.7232786029562783
aF1.2282402321498838
aa(lp74
F2.8660767770564437
aF1.084872353057203
aa(lp75
F3.03159079776444
aF0.9684645516393091
aa(lp76
F3.2147966901266645
aF0.8825502438341739
aa(lp77
F3.4101334641397156
aF0.8297372530075919
aa(lp78
F3.611671911776619
aF0.8116286526756473
aa(lp79
F3.8132945808192193
aF0.8287741071756771
aa(lp80
F4.008881462611964
aF0.8806531872799468
aa(lp81
F4.192495757413199
aF0.9656911671861061
aa(lp82
F4.358564078664738
aF1.0813068233861642
aa(lp83
F4.502045626300308
aF1.2239907845379916
aa(lp84
F4.618585194044685
aF1.3894120541251542
aa(lp85
F4.70464536635478
aF1.5725494725404832
aa(lp86
F4.757613892326779
aF1.767844128223193
aasg44
((lp87
F3.6138590490970453
aF1.973119954239635
aF1.1620298215442686
tp88
sbsS'pose'
p89
(imodels.pose
Pose
p90
(dp91
S'y'
p92
F1.9730676358292554
sS'x'
p93
F3.614446572003927
sS'theta'
p94
F1.4895715524698128
sbsS'radius'
p95
F1.161442297459613
sg92
F1.9730676358292554
sg93
F3.614446572003927
sba(imodels.circular_obstacle
CircularObstacle
p96
(dp97
g3
(imodels.polygon
Polygon
p98
(dp99
g6
(lp100
(lp101
F-4.134375134051968
aF0.14576660437796995
aa(lp102
F-3.9711794623781707
aF-0.09785220390217564
aa(lp103
F-3.76817785902221
aF-0.30944922665015717
aa(lp104
F-3.531532188498277
aF-0.4826016959457995
aa(lp105
F-3.2684255396861217
aF-0.612053781103735
aa(lp106
F-2.9868441919843356
aF-0.6938761229630739
aa(lp107
F-2.6953352016012335
aF-0.7255851047619957
aa(lp108
F-2.4027469661539436
aF-0.7062182392762737
aa(lp109
F-2.117960642418903
aF-0.6363633839376464
aa(lp110
F-1.8496205697182584
aF-0.5181408971429873
aa(lp111
F-1.6058718816094522
aF-0.35513927737761186
aa(lp112
F-1.394113270353076
aF-0.15230623874812377
aa(lp113
F-1.2207724086901526
aF0.08420147080667206
aa(lp114
F-1.0911108457251308
aF0.3472049500429133
aa(lp115
F-1.0090642990606327
aF0.6287210511478598
aa(lp116
F-0.9771231909201585
aF0.9202046983935661
aa(lp117
F-0.9962570544381313
aF1.2128082634227288
aa(lp118
F-1.0658851046715667
aF1.497650124148274
aa(lp119
F-1.183893867614187
aF1.766084255490867
aa(lp120
F-1.3467013321058903
aF2.009962668858436
aa(lp121
F-1.5493656773851092
aF2.2218827343393777
aa(lp122
F-1.7857352759926344
aF2.3954118784478453
aa(lp123
F-2.0486354188729003
aF2.525282836996844
aa(lp124
F-2.3300860948614206
aF2.6075535364378055
aa(lp125
F-2.621544214129359
aF2.6397267506648143
aa(lp126
F-2.9141629231898456
aF2.62082590124807
aa(lp127
F-3.1990601402773207
aF2.551424700273504
aa(lp128
F-3.4675881600380296
aF2.4336297360165657
aa(lp129
F-3.7115961440121983
aF2.2710165300406615
aa(lp130
F-3.923677529331492
aF2.06852100662854
aa(lp131
F-4.09739484584437
aF1.8322896688588317
aa(lp132
F-4.227475117621453
aF1.569493029049073
aa(lp133
F-4.309969917668038
aF1.288107956655078
aa(lp134
F-4.342375217579378
aF0.9966755501890887
aa(lp135
F-4.323707394249577
aF0.7040418826574344
aa(lp136
F-4.254533086543701
aF0.4190894898717046
aasg44
((lp137
F-2.658997171341629
aF0.9574441973126374
aF1.683912304047787
tp138
sbsg47
(imodels.polygon
Polygon
p139
(dp140
g6
(lp141
(lp142
F-1.5093140730953079
aF-4.697292633821162
aa(lp143
F-1.5348576972790098
aF-4.405178830202671
aa(lp144
F-1.6107132244691964
aF-4.121931782564749
aa(lp145
F-1.7345781532399118
aF-3.85614910739286
aa(lp146
F-1.9026927157049565
aF-3.6158983115813026
aa(lp147
F-2.10995400065749
aF-3.4084719131631527
aa(lp148
F-2.3500708461766147
aF-3.240166085875904
aa(lp149
F-2.6157548001259756
aF-3.1160895465353247
aa(lp150
F-2.8989413521728173
aF-3.040008486206741
aa(lp151
F-3.1910347221010937
aF-3.0142322520977136
aa(lp152
F-3.483168774169823
aF-3.0395432501579505
aa(lp153
F-3.7664761377815816
aF-3.1151731961069933
aa(lp154
F-4.0323573656335485
aF-3.238826435760594
aa(lp155
F-4.272741959385781
aF-3.406749626795883
aa(lp156
F-4.480333339732932
aF-3.6138456668508896
aa(lp157
F-4.648830325113545
aF-3.853828409810766
aa(lp158
F-4.7731183963425465
aF-4.11941347405775
aa(lp159
F-4.849424941563763
aF-4.402539350934632
aa(lp160
F-4.875433769252469
aF-4.694612101945676
aa(lp161
F-4.850355413366321
aF-4.9867662172118274
aa(lp162
F-4.774951096618118
aF-5.270133717141931
aa(lp163
F-4.651509624494644
aF-5.536113329069029
aa(lp164
F-4.483777911375307
aF-5.776631568325333
aa(lp165
F-4.276847247544951
aF-5.984387798960248
aa(lp166
F-4.0369987593260985
aF-6.153075835584165
aa(lp167
F-3.7715127531986283
aF-6.277575359886008
aa(lp168
F-3.488447731032114
aF-6.354107341611105
aa(lp169
F-3.196395784152243
aF-6.380348746386347
aa(lp170
F-2.9042217909542076
aF-6.3555030485773845
aa(lp171
F-2.620794334399387
aF-6.280324408846638
aa(lp172
F-2.3547165070644906
aF-6.157094782532013
aa(lp173
F-2.1140647748254704
aF-5.9895546536934
aa(lp174
F-1.9061438256485643
aF-5.782789497309945
aa(lp175
F-1.737264844752556
aF-5.543075415928758
aa(lp176
F-1.6125539463275442
aF-5.2776886362751245
aa(lp177
F-1.5357965766302766
aF-4.99468464832079
aasg44
((lp178
F-3.1932263754363692
aF-4.697216818542298
aF1.6839123040477881
tp179
sbsg89
(imodels.pose
Pose
p180
(dp181
g92
F-4.697292633821162
sg93
F-3.1923749884637926
sg94
F-2.6385900925024086
sbsg95
F1.6830609153684848
sg92
F-4.697292633821162
sg93
F-3.1923749884637926
sba(imodels.circular_obstacle
CircularObstacle
p182
(dp183
g3
(imodels.polygon
Polygon
p184
(dp185
g6
(lp186
(lp187
F8.256962960302271
aF-1.7169358466443931
aa(lp188
F7.89527291889204
aF-1.6172358641491535
aa(lp189
F7.521768173428594
aF-1.5818243168633814
aa(lp190
F7.1477860020363675
aF-1.611776078842281
aa(lp191
F6.7846781745178895
aF-1.7061820011125253
aa(lp192
F6.443466383314112
aF-1.8621765077734835
aa(lp193
F6.134507693557939
aF-2.075024577036597
aa(lp194
F5.867180167073943
aF-2.3382654670002063
aa(lp195
F5.649598202821913
aF-2.6439088235403307
aa(lp196
F5.488366234275711
aF-2.9826772177030714
aa(lp197
F5.388378259951181
aF-3.344287750673783
aa(lp198
F5.352669292087883
aF-3.7177641785497917
aa(lp199
F5.382323232577616
aF-4.091770082752275
aa(lp200
F5.476439972452819
aF-4.454952973098377
aa(lp201
F5.632162713589532
aF-4.796288878707139
aa(lp202
F5.844764683308133
aF-5.105416967105228
aa(lp203
F6.107792609756583
aF-5.372954034580211
aa(lp204
F6.413262603057021
aF-5.5907793218126995
aa(lp205
F6.751902496483911
aF-5.7522810095584
aa(lp206
F7.113433291704727
aF-5.852556912306214
aa(lp207
F7.48688116515833
aF-5.888563278102681
aa(lp208
F7.860910565000335
aF-5.859207177906757
aa(lp209
F8.224168287866595
aF-5.765379680109441
aa(lp210
F8.565628091426843
aF-5.6099288032464205
aa(lp211
F8.874925382437498
aF-5.397573067890964
aa(lp212
F9.142671821248495
aF-5.134758271753238
aa(lp213
F9.36074029333051
aF-4.829461835402108
aa(lp214
F9.522511597861623
aF-4.490950657454926
aa(lp215
F9.623075365444128
aF-4.129499829243817
aa(lp216
F9.65937910634082
aF-3.756080747029489
aa(lp217
F9.630320865054475
aF-3.382028088733587
aa(lp218
F9.536782668834467
aF-3.018695763702091
aa(lp219
F9.381603754822189
aF-2.6771122787224235
aa(lp220
F9.169494388492367
aF-2.3676459812358517
aa(lp221
F8.906892889325775
aF-2.099690340876588
aa(lp222
F8.601770203523513
aF-1.8813788222301833
aasg44
((lp223
F7.50556868087106
aF-3.7361948175958357
aF2.154530147138775
tp224
sbsg47
(imodels.polygon
Polygon
p225
(dp226
g6
(lp227
(lp228
F4.608643932407009
aF-4.475614826046001
aa(lp229
F4.575961405984062
aF-4.101861397925938
aa(lp230
F4.478905864691619
aF-3.7394527963871274
aa(lp231
F4.320423310363701
aF-3.399389489724112
aa(lp232
F4.10532428642207
aF-3.0919936822311627
aa(lp233
F3.840137859734922
aF-2.826595996359963
aa(lp234
F3.5329134388056143
aF-2.61125225312711
aa(lp235
F3.1929764438570447
aF-2.4524989475545285
aa(lp236
F2.83064524514642
aF-2.3551548413857044
aa(lp237
F2.456917961500436
aF-2.3221746954873046
aa(lp238
F2.0831386259169227
aF-2.354559581709624
aa(lp239
F1.7206528513663866
aF-2.451326496579239
aa(lp240
F1.3804634486354233
aF-2.6095381991629485
aa(lp241
F1.0728964495096813
aF-2.824392367411253
aa(lp242
F0.8072876727527443
aF-3.089367366750001
aa(lp243
F0.5916993467859613
aF-3.3964202062934996
aa(lp244
F0.43267539063995564
aF-3.736230673961225
aa(lp245
F0.33504278132418275
aF-4.098484240076287
aa(lp246
F0.3017650368642406
aF-4.472185142254144
aa(lp247
F0.33385226234949794
aF-4.845990148274051
aa(lp248
F0.43033048943286945
aF-5.208552865970915
aa(lp249
F0.5882712399445813
aF-5.548868149043365
aa(lp250
F0.8028804162527257
aF-5.856606144762492
aa(lp251
F1.067643820212799
aF-6.122425843972991
aa(lp252
F1.3745248836571287
aF-6.338258615961315
aa(lp253
F1.714208608557847
aF-6.497553121837877
aa(lp254
F2.076384312359197
aF-6.595474172388213
aa(lp255
F2.4500585960916097
aF-6.629049494307071
aa(lp256
F2.8238890355045774
aF-6.597259949906551
aa(lp257
F3.186528466433574
aF-6.501070471789772
aa(lp258
F3.5269694140412295
aF-6.3434007735060245
aa(lp259
F3.8348782112058966
aF-6.129036725229517
aa(lp260
F4.100908664304029
aF-5.864485084544211
aa(lp261
F4.316985745446491
aF-5.557775991803483
aa(lp262
F4.476550700039176
aF-5.218219225075563
aa(lp263
F4.57476012972878
aF-4.856121613256694
aasg44
((lp264
F2.454113787451956
aF-4.475517822001591
aF2.1545301471387748
tp265
sbsg89
(imodels.pose
Pose
p266
(dp267
g92
F-4.475614826046001
sg93
F2.4552031190607857
sg94
F1.2146033793445046
sbsg95
F2.153440813346224
sg92
F-4.475614826046001
sg93
F2.4552031190607857
sba(imodels.circular_obstacle
CircularObstacle
p268
(dp269
g3
(imodels.polygon
Polygon
p270
(dp271
g6
(lp272
(lp273
F-5.70872459946454
aF0.8230683966354406
aa(lp274
F-5.327002367860958
aF0.7847324762109356
aa(lp275
F-4.944419868936953
aF0.8132304833741868
aa(lp276
F-4.5725899248815995
aF0.907697396095017
aa(lp277
F-4.222798977278168
aF1.0652657871825242
aa(lp278
F-3.905664501022373
aF1.2811528615181036
aa(lp279
F-3.630812723903364
aF1.5488056319310686
aa(lp280
F-3.406586434274006
aF1.8600998270813536
aa(lp281
F-3.239791745950025
aF2.205586493744654
aa(lp282
F-3.135491506978667
aF2.5747788081902967
aa(lp283
F-3.0968516231001546
aF2.9564703908444963
aa(lp284
F-3.125044960564643
aF3.339075462188077
aa(lp285
F-3.2192157452167205
aF3.710980514873873
aa(lp286
F-3.3765055384695577
aF4.060896827488321
aa(lp287
F-3.592140001699882
aF4.378203119834664
aa(lp288
F-3.8595738154370616
aF4.653267948857206
aa(lp289
F-4.170689354502187
aF4.8777420592740395
aa(lp290
F-4.516043088557144
aF5.0448118149736025
aa(lp291
F-4.885152228877427
aF5.149406018576066
aa(lp292
F-5.266812920537745
aF5.18834984140563
aa(lp293
F-5.649440321677125
aF5.1604611915183245
aa(lp294
F-6.021420247154857
aF5.066586594652115
aa(lp295
F-6.371461702885675
aF4.909575498977119
aa(lp296
F-6.688939610107119
aF4.694193783593699
aa(lp297
F-6.964217316604593
aF4.426979096121801
aa(lp298
F-7.188939105461714
aF4.116042410431502
aa(lp299
F-7.356283822591854
aF3.7708218279862407
aa(lp300
F-7.461171924498438
aF3.4017960958568296
aa(lp301
F-7.500419661583361
aF3.0201665372153053
aa(lp302
F-7.472835716958445
aF2.637517048918062
aa(lp303
F-7.379257367407396
aF2.265462486534377
aa(lp304
F-7.222525068876684
aF1.9152961096611945
aa(lp305
F-7.007396237921537
aF1.5976467888889254
aa(lp306
F-6.740400846165462
aF1.322156379480114
aa(lp307
F-6.429643211026239
aF1.0971870546869567
aa(lp308
F-6.084555999107584
aF0.929567482245603
aasg44
((lp309
F-5.2983561135428126
aF2.9876410707513257
aF2.2031289466953323
tp310
sbsg47
(imodels.polygon
Polygon
p311
(dp312
g6
(lp313
(lp314
F-2.2502169532627536
aF-1.7053631851549915
aa(lp315
F-2.2836366852210896
aF-1.3231791634965167
aa(lp316
F-2.382881466150484
aF-0.9525958687387939
aa(lp317
F-2.5449388425347204
aF-0.6048619019557504
aa(lp318
F-2.7648897616161032
aF-0.2905323009149523
aa(lp319
F-3.0360578832044816
aF-0.01914815486098065
aa(lp320
F-3.350212231789455
aF0.20105300353825117
aa(lp321
F-3.6978170376996413
aF0.363387238385231
aa(lp322
F-4.068321183687243
aF0.4629270932234313
aa(lp323
F-4.450478471142108
aF0.49665115793029635
aa(lp324
F-4.832688984647421
aF0.46353577991315564
aa(lp325
F-5.2033511931749326
aF0.36458613582728905
aa(lp326
F-5.551214100320092
aF0.20280572067226643
aa(lp327
F-5.865718754488895
aF-0.016894819612399248
aa(lp328
F-6.137318752913913
aF-0.28784674477762673
aa(lp329
F-6.3577700109934385
aF-0.6018256416900898
aa(lp330
F-6.520381001361125
aF-0.9493010662985824
aa(lp331
F-6.620215866986294
aF-1.3197258285659252
aa(lp332
F-6.654244243056034
aF-1.7018561394773593
aa(lp333
F-6.621433239979753
aF-2.084092902455936
aa(lp334
F-6.522778795484978
aF-2.454833789702865
aa(lp335
F-6.361275444150008
aF-2.8028254166176305
aa(lp336
F-6.141825421982153
aF-3.117504924475612
aa(lp337
F-5.871089865060537
aF-3.3893206030402503
aa(lp338
F-5.55728661892601
aF-3.6100218210039188
aa(lp339
F-5.209940795966001
aF-3.772909463774776
aa(lp340
F-4.839595652318719
aF-3.8730392768779978
aa(lp341
F-4.457492560273428
aF-3.9073719427319817
aa(lp342
F-4.075229790211805
aF-3.874865335403209
aa(lp343
F-3.7044104593457257
aF-3.776506153059894
aa(lp344
F-3.356290333335484
aF-3.6152799679601184
aa(lp345
F-3.041436171338035
aF-3.396080603070308
aa(lp346
F-2.769404985001973
aF-3.1255615860755555
aa(lp347
F-2.5484539471088232
aF-2.811934189713003
aa(lp348
F-2.385289755227767
aF-2.464718188666084
aa(lp349
F-2.284865058142445
aF-2.094452898488172
aasg44
((lp350
F-4.453345897725109
aF-1.7052639930325375
aF2.2031289466953337
tp351
sbsg89
(imodels.pose
Pose
p352
(dp353
g92
F-1.7053631851549915
sg93
F-4.452231994536911
sg94
F-1.75811177622424
sbsg95
F2.2020150412741573
sg92
F-1.7053631851549915
sg93
F-4.452231994536911
sba(imodels.circular_obstacle
CircularObstacle
p354
(dp355
g3
(imodels.polygon
Polygon
p356
(dp357
g6
(lp358
(lp359
F5.838961553887672
aF-1.4018136524406033
aa(lp360
F5.85907770468625
aF-1.2189015480736496
aa(lp361
F5.84714213980542
aF-1.0352740998588632
aa(lp362
F5.803517148667927
aF-0.856505093610151
aa(lp363
F5.729526914336258
aF-0.6880208430985879
aa(lp364
F5.627417319561031
aF-0.5349354809579265
aa(lp365
F5.5002877757665996
aF-0.4018957254653733
aa(lp366
F5.351997144221357
aF-0.2929398351114704
aa(lp367
F5.187046605040138
aF-0.21137503222000592
aa(lp368
F5.010443029386391
aF-0.15967711627352088
aa(lp369
F4.827547002043241
aF-0.1394153140587101
aa(lp370
F4.643910107441751
aF-0.15120464771331488
aa(lp371
F4.4651064181293005
aF-0.1946872664839856
aa(lp372
F4.296563300638798
aF-0.2685433088466864
aa(lp373
F4.14339667443889
aF-0.37053096528331697
aa(lp374
F4.010255724477561
aF-0.4975545256581286
aa(lp375
F3.9011817808792517
aF-0.6457583456993515
aa(lp376
F3.8194856493290894
aF-0.8106438803488083
aa(lp377
F3.767647115629864
aF-0.9872062315758261
aa(lp378
F3.747239674847565
aF-1.170086065914157
aa(lp379
F3.7588827697999005
aF-1.3537322904515252
aa(lp380
F3.8022229886298398
aF-1.5325705494417965
aa(lp381
F3.875944792188773
aF-1.7011724270319248
aa(lp382
F3.977810445612728
aF-1.8544202201625573
aa(lp383
F4.104727942017666
aF-1.9876622801631483
aa(lp384
F4.252844856573444
aF-2.0968542078381143
aa(lp385
F4.417665282131229
aF-2.1786816162404885
aa(lp386
F4.594186296966916
aF-2.2306607348197574
aa(lp387
F4.777049822329682
aF-2.2512138012284444
aa(lp388
F4.960705260346183
aF-2.239716952361688
aa(lp389
F5.139577975606441
aF-2.1965191609560875
aa(lp390
F5.308238506379618
aF-2.1229316429505958
aa(lp391
F5.461567369260981
aF-2.0211880571360274
aa(lp392
F5.594910454807204
aF-1.8943767051839588
aa(lp393
F5.704220297316258
aF-1.7463467900399439
aa(lp394
F5.786178930681111
aF-1.5815915780924492
aasg44
((lp395
F4.802624577051731
aF-1.195183555355304
aF1.0567356938132348
tp396
sbsg47
(imodels.polygon
Polygon
p397
(dp398
g6
(lp399
(lp400
F3.5167597271855513
aF-0.36063671603666875
aa(lp401
F3.5007298785055556
aF-0.17732130097782833
aa(lp402
F3.453126898847884
aF0.0004297996505778223
aa(lp403
F3.375395718234137
aF0.16722116935324444
aa(lp404
F3.2698957712478447
aF0.31799006081560127
aa(lp405
F3.1398293792935505
aF0.4481600693847431
aa(lp406
F2.9891445480609753
aF0.5537800442157801
aa(lp407
F2.822415130657922
aF0.6316440206062579
aa(lp408
F2.644701993912943
aF0.6793885331198328
aa(lp409
F2.461399401974258
aF0.6955643556787743
aa(lp410
F2.278071280042227
aF0.6796804910428338
aa(lp411
F2.1002823282488245
aF0.6322190744278442
aa(lp412
F1.9334291120150118
aF0.5546207388829942
aa(lp413
F1.7825762559309046
aF0.44924088664279554
aa(lp414
F1.6523027132924468
aF0.3192781937831735
aa(lp415
F1.5465627775941284
aF0.1686775183351064
aa(lp416
F1.468566054803296
aF0.0020101589608474413
aa(lp417
F1.4206800397103476
aF-0.17566490120634795
aa(lp418
F1.404358253530137
aF-0.358954553786045
aa(lp419
F1.4200961240494867
aF-0.5422952663362437
aa(lp420
F1.467415947524786
aF-0.7201219565522095
aa(lp421
F1.544881388792815
aF-0.8870369135094813
aa(lp422
F1.6501410794617275
aF-1.0379736385540623
aa(lp423
F1.7799999908126116
aF-1.1683506326506499
aa(lp424
F1.9305164149748115
aF-1.2742104621627146
aa(lp425
F2.097121610630449
aF-1.3523398818933465
aa(lp426
F2.2747584815496493
aF-1.400367369199406
aa(lp427
F2.4580350785397305
aF-1.416835108650648
aa(lp428
F2.6413882654450904
aF-1.4012432422278447
aa(lp429
F2.819252581317254
aF-1.3540650418994555
aa(lp430
F2.986229173151148
aF-1.2767325440318973
aa(lp431
F3.137249671441741
aF-1.1715930816832656
aa(lp432
F3.26773003431967
aF-1.0418380341893725
aa(lp433
F3.373709690515917
aF-0.8914059567609731
aa(lp434
F3.451971757641645
aF-0.7248630304743653
aa(lp435
F3.5001406867048406
aF-0.5472644614491529
aasg44
((lp436
F2.4600240344433697
aF-0.36058913831476597
aF1.0567356938132344
tp437
sbsg89
(imodels.pose
Pose
p438
(dp439
g92
F-0.36063671603666875
sg93
F2.460558320582266
sg94
F-0.19675916596051746
sbsg95
F1.0562014066032854
sg92
F-0.36063671603666875
sg93
F2.460558320582266
sba(imodels.circular_obstacle
CircularObstacle
p440
(dp441
g3
(imodels.polygon
Polygon
p442
(dp443
g6
(lp444
(lp445
F1.5234445053434127
aF0.9712598965951105
aa(lp446
F1.8513344775580196
aF0.7458158257865959
aa(lp447
F2.2133764084322287
aF0.5807022187444004
aa(lp448
F2.598580959509486
aF0.48093089635675135
aa(lp449
F2.995255719425799
aF0.44953029465957695
aa(lp450
F3.3913601127059314
aF0.487453540377607
aa(lp451
F3.774870876653832
aF0.5935495199324787
aa(lp452
F4.134147012734944
aF0.7645978200825736
aa(lp453
F4.458283134799035
aF0.9954064796143669
aa(lp454
F4.737440488691973
aF1.2789695849526725
aa(lp455
F4.963145595562406
aF1.6066799260684466
aa(lp456
F5.128547453912295
aF1.9685902577750918
aa(lp457
F5.228625493338751
aF2.3537152361472664
aa(lp458
F5.260341967786591
aF2.7503648651527777
aa(lp459
F5.222734162601421
aF3.146499332134338
aa(lp460
F5.116943616551393
aF3.5300944615456062
aa(lp461
F4.94618147181896
aF3.8895066940419274
aa(lp462
F4.715631003721156
aF4.213826512433426
aa(lp463
F4.432290288749087
aF4.4932095866894155
aa(lp464
F4.10475978654518
aF4.719175586493957
aa(lp465
F3.7429812835065874
aF4.884865591264209
aa(lp466
F3.357936122061239
aF4.985250284266354
aa(lp467
F2.9613118754964693
aF5.017282611352288
aa(lp468
F2.565147586016738
aF4.979990270548457
aa(lp469
F2.18146833439371
aF4.8745052250889
aa(lp470
F1.8219202333985332
aF4.704029344060608
aa(lp471
F1.497416924342607
aF4.473737213597224
aa(lp472
F1.2178083068905259
aF4.190619068668031
aa(lp473
F0.9915815574451241
aF3.863268613074981
aa(lp474
F0.8256035113245594
aF3.5016221681213366
aa(lp475
F0.7249122284043066
aF3.1166570677739345
aa(lp476
F0.6925640689931398
aF2.7200584551637546
aa(lp477
F0.7295409217672055
aF2.3238645944080187
aa(lp478
F0.8347203997443915
aF1.940101463878185
aa(lp479
F1.0049099089635936
aF1.5804177223866667
aa(lp480
F1.2349435557559503
aF1.2557311284456496
aasg44
((lp481
F2.97727948208185
aF2.7342188710467483
aF2.2850952901766752
tp482
sbsg47
(imodels.polygon
Polygon
p483
(dp484
g6
(lp485
(lp486
F0.8738154195674002
aF4.522795429624833
aa(lp487
F0.8391523226971465
aF4.919198422369557
aa(lp488
F0.736215187847846
aF5.3035690887979765
aa(lp489
F0.5681285454071128
aF5.664240329091145
aa(lp490
F0.3399944591037183
aF5.990264410422762
aa(lp491
F0.05873765912516049
aF6.271745271952339
aa(lp492
F-0.26710464956804847
aF6.500138907605984
aa(lp493
F-0.6276419236207543
aF6.668512708894232
aa(lp494
F-1.011930496587465
aF6.771755895733944
aa(lp495
F-1.4083057604955056
aF6.80673464790497
aa(lp496
F-1.8047362307033747
aF6.772387228316618
aa(lp497
F-2.189188746850099
aF6.6697562107339055
aa(lp498
F-2.549993724668991
aF6.501956833730534
aa(lp499
F-2.876199371895304
aF6.274082441445502
aa(lp500
F-3.157904116478658
aF5.993049881373119
aa(lp501
F-3.386557156649852
aF5.667389551946765
aa(lp502
F-3.5552180100136708
aF5.306986472764305
aa(lp503
F-3.658767183373537
aF4.922780236950648
aa(lp504
F-3.694061568664039
aF4.526432953235247
aa(lp505
F-3.660029848138535
aF4.1299752569551975
aa(lp506
F-3.5577050129044663
aF3.745441134885476
aa(lp507
F-3.3901930077461397
aF3.384502648340405
aa(lp508
F-3.162578453982901
aF3.0581156420782487
aa(lp509
F-2.8817703120296483
aF2.7761871930803306
aa(lp510
F-2.5562921683831954
aF2.5472748933887877
aa(lp511
F-2.196023512615667
aF2.378327094903373
aa(lp512
F-1.8118998575941987
aF2.2744720006876444
aa(lp513
F-1.4155808054096486
aF2.2388620046591194
aa(lp514
F-1.0190961344656466
aF2.2725780045410247
aa(lp515
F-0.6344806503199864
aF2.3745965925385524
aa(lp516
F-0.27340888393294094
aF2.541821119626389
aa(lp517
F0.053159274391198164
aF2.769175690529175
aa(lp518
F0.3353112490226091
aF3.049759236292653
aa(lp519
F0.5644826630728943
aF3.375054987761688
aa(lp520
F0.7337172995439685
aF3.7351889916548413
aa(lp521
F0.8378782487572709
aF4.119229822297357
aasg44
((lp522
F-1.4112798682932208
aF4.5228983121420745
aF2.285095290176676
tp523
sbsg89
(imodels.pose
Pose
p524
(dp525
g92
F4.522795429624833
sg93
F-1.4101245228773844
sg94
F-2.2603467226823857
sbsg95
F2.2839399424447846
sg92
F4.522795429624833
sg93
F-1.4101245228773844
sba(imodels.circular_obstacle
CircularObstacle
p526
(dp527
g3
(imodels.polygon
Polygon
p528
(dp529
g6
(lp530
(lp531
F-6.5042522077696425
aF6.3369346257399775
aa(lp532
F-6.467261642747325
aF6.367382133995558
aa(lp533
F-6.436116980537362
aF6.403787664831836
aa(lp534
F-6.41176357913548
aF6.445046173042905
aa(lp535
F-6.394940656150885
aF6.489905307250982
aa(lp536
F-6.3861588507630245
aF6.537003423495411
aa(lp537
F-6.385684723896025
aF6.5849109162638495
aa(lp538
F-6.393532667089011
aF6.632173612412965
aa(lp539
F-6.409464465658597
aF6.677356910809408
aa(lp540
F-6.432996529413226
aF6.719089327886448
aa(lp541
F-6.463414571439899
aF6.756104127344336
aa(lp542
F-6.499795289406728
aF6.787277770375941
aa(lp543
F-6.541034391272002
aF6.811664019308269
aa(lp544
F-6.585880114713752
aF6.82852265948564
aa(lp545
F-6.632971222838668
aF6.837341967577061
aa(lp546
F-6.680878322857277
aF6.837854244309864
aa(lp547
F-6.728147253547684
aF6.830043940152576
aa(lp548
F-6.7733432245346945
aF6.814148127301849
aa(lp549
F-6.81509436759064
aF6.7906493036469096
aa(lp550
F-6.852133378011666
aF6.7602607471383305
aa(lp551
F-6.8833359820965745
aF6.723904865111286
aa(lp552
F-6.907755063095141
aF6.682685195743018
aa(lp553
F-6.924649409774613
aF6.637852911505899
aa(lp554
F-6.9335062149769495
aF6.590768841362678
aa(lp555
F-6.934056641250706
aF6.54286216447353
aa(lp556
F-6.926283981081913
aF6.495587029216776
aa(lp557
F-6.910424164030156
aF6.450378414299609
aa(lp558
F-6.886958595376365
aF6.408608571740674
aa(lp559
F-6.856599543656367
aF6.371545373844291
aa(lp560
F-6.820268520623692
aF6.340313828492784
aa(lp561
F-6.779068309891319
aF6.315861930913005
aa(lp562
F-6.734249493288613
aF6.298931888444752
aa(lp563
F-6.687172490984805
aF6.290037591747922
aa(lp564
F-6.6392662676044845
aF6.2894490162822585
aa(lp565
F-6.591984957760265
aF6.29718402753363
aa(lp566
F-6.546763727581364
aF6.3130078387291295
aasg44
((lp567
F-6.659922438956861
aF6.563789902550315
aF0.2751300374269902
tp568
sbsg47
(imodels.polygon
Polygon
p569
(dp570
g6
(lp571
(lp572
F-4.783023936788121
aF1.5284223412340576
aa(lp573
F-4.787197442891015
aF1.5761500533775603
aa(lp574
F-4.799591279544333
aF1.6224290493979456
aa(lp575
F-4.81982924704814
aF1.6658545871719197
aa(lp576
F-4.847297046738091
aF1.7051085377990431
aa(lp577
F-4.881160927267429
aF1.7389993957866876
aa(lp578
F-4.920392992105796
aF1.7664984457368607
aa(lp579
F-4.96380240007682
aF1.7867709877395088
aa(lp580
F-5.010071511880433
aF1.7992016736638121
aa(lp581
F-5.057795885416611
aF1.803413185295443
aa(lp582
F-5.105526905901563
aF1.7992776873678562
aa(lp583
F-5.151815756791527
aF1.7869207078449068
aa(lp584
F-5.19525739683074
aF1.7667173276735733
aa(lp585
F-5.2345332083542635
aF1.7392807956621728
aa(lp586
F-5.26845102230879
aF1.7054439140654587
aa(lp587
F-5.295981305081038
aF1.6662337598943253
aa(lp588
F-5.316288408726972
aF1.6228405092537337
aa(lp589
F-5.328755936039513
aF1.5765813110078168
aa(lp590
F-5.333005450529207
aF1.5288603063427237
aa(lp591
F-5.328907963399398
aF1.4811260077842974
aa(lp592
F-5.3165878488428255
aF1.4348273313781958
aa(lp593
F-5.296419068815663
aF1.3913696166216667
aa(lp594
F-5.269013821881314
aF1.3520719691079621
aa(lp595
F-5.23520396067442
aF1.318127220695071
aa(lp596
F-5.196015742035104
aF1.290565722558701
aa(lp597
F-5.152638676242182
aF1.2702240701469516
aa(lp598
F-5.1063894208886
aF1.2577197093522876
aa(lp599
F-5.058671815356214
aF1.253432194699301
aa(lp600
F-5.010934268994365
aF1.2574916684329673
aa(lp601
F-4.9646257964317995
aF1.2697749102105294
aa(lp602
F-4.92115203451607
aF1.2899090773037667
aa(lp603
F-4.8818325759322505
aF1.317283021782399
aa(lp604
F-4.847860914586593
aF1.3510658411594125
aa(lp605
F-4.820268218563848
aF1.3902320994162383
aa(lp606
F-4.799892030285665
aF1.433592952854518
aa(lp607
F-4.787350843938346
aF1.4798322359874319
aasg44
((lp608
F-5.058153973936253
aF1.5284347284946418
aF0.2751300374269901
tp609
sbsg89
(imodels.pose
Pose
p610
(dp611
g92
F1.5284223412340576
sg93
F-5.0580148680403765
sg94
F-0.9693408377027914
sbsg95
F0.27499093125225543
sg92
F1.5284223412340576
sg93
F-5.0580148680403765
sba(imodels.circular_obstacle
CircularObstacle
p612
(dp613
g3
(imodels.polygon
Polygon
p614
(dp615
g6
(lp616
(lp617
F0.3293647345264489
aF-0.5634271143275718
aa(lp618
F0.2419250263813587
aF-0.5702456929699046
aa(lp619
F0.1569958203502988
aF-0.5921369135419516
aa(lp620
F0.07715503824378511
aF-0.6284362949116175
aa(lp621
F0.004826149009422798
aF-0.6780420139097689
aa(lp622
F-0.05779539269353429
aF-0.7394483498202029
aa(lp623
F-0.1088087868257549
aF-0.8107913886839276
aa(lp624
F-0.14666558442006306
aF-0.8899056001196982
aa(lp625
F-0.17021668884933408
aF-0.9743895693408575
aa(lp626
F-0.1787472352442586
aF-1.0616788891537894
aa(lp627
F-0.17199828933905462
aF-1.1491239993908338
aa(lp628
F-0.15017470710330064
aF-1.2340706110572182
aa(lp629
F-0.11393891659041039
aF-1.3139402740157293
aa(lp630
F-0.06439081074710823
aF-1.3863086426759468
aa(lp631
F-0.003034361512993855
aF-1.4489790640291003
aa(lp632
F0.0682680314017719
aF-1.5000492543540696
aa(lp633
F0.14735207137383743
aF-1.537969040704957
aa(lp634
F0.23181725943429532
aF-1.5615874145082425
aa(lp635
F0.31909975846861116
aF-1.5701874690153308
aa(lp636
F0.4065502153454884
aF-1.5635081601270076
aa(lp637
F0.4915141787794649
aF-1.541752230066673
aa(lp638
F0.5714126719417183
aF-1.5055800533889898
aa(lp639
F0.6438204741363791
aF-1.4560895921207906
aa(lp640
F0.7065397353981377
aF-1.3947830684713498
aa(lp641
F0.7576666895303932
aF-1.3235213667209806
aa(lp642
F0.795649440591546
aF-1.2444675483626833
aa(lp643
F0.8193350687915764
aF-1.1600211950253714
aa(lp644
F0.8280046259572222
aF-1.0727455721186747
aa(lp645
F0.8213949583213718
aF-0.9852898240574764
aa(lp646
F0.7997066942326825
aF-0.9003085627346444
aa(lp647
F0.7635981543282968
aF-0.8203812900351855
aa(lp648
F0.7141653690189009
aF-0.7479341002224993
aa(lp649
F0.6529088098308271
aF-0.6851660388246975
aa(lp650
F0.5816878444344891
aF-0.6339823533066157
aa(lp651
F0.5026642978208578
aF-0.5959366616214398
aa(lp652
F0.41823683275719237
aF-0.5721837940445816
aasg44
((lp653
F0.32460803269668226
aF-1.067065805771677
aF0.5036611536855191
tp654
sbsg47
(imodels.polygon
Polygon
p655
(dp656
g6
(lp657
(lp658
F0.13730762323743417
aF-0.6942036929274161
aa(lp659
F0.12966747998606237
aF-0.6068319366997956
aa(lp660
F0.10697895740314978
aF-0.5221122428960235
aa(lp661
F0.06993073774475672
aF-0.44261617384010293
aa(lp662
F0.019647374247177718
aF-0.37075673513807467
aa(lp663
F-0.04234484330631655
aF-0.3087151318544676
aa(lp664
F-0.11416421723854586
aF-0.2583745607096857
aa(lp665
F-0.19363075860189455
aF-0.22126304795491614
aa(lp666
F-0.27833235806718887
aF-0.19850706801071077
aa(lp667
F-0.36569800254186213
aF-0.19079735071853743
aa(lp668
F-0.4530758151168251
aF-0.19836791508421536
aa(lp669
F-0.5378135495352391
aF-0.22098896591821854
aa(lp670
F-0.6173390958723861
aF-0.25797386898661306
aa(lp671
F-0.6892385537755326
aF-0.3081999929504815
aa(lp672
F-0.7513295034464176
aF-0.3701427854623457
aa(lp673
F-0.8017272503156174
aF-0.4419220490815018
aa(lp674
F-0.8389020326330048
aF-0.5213590123596575
aa(lp675
F-0.8617254555081095
aF-0.6060424637741127
aa(lp676
F-0.8695047419520725
aF-0.6934019410941095
aa(lp677
F-0.8620037612728584
aF-0.7807857546069692
aa(lp678
F-0.8394501965325947
aF-0.8655414759047494
aa(lp679
F-0.8025286335076696
aF-0.9450964490930842
aa(lp680
F-0.7523597809277215
aF-1.0170358806032906
aa(lp681
F-0.6904664527376628
aF-1.0791761372873268
aa(lp682
F-0.6187273449494186
aF-1.1296310279219024
aa(lp683
F-0.5393200101303202
aF-1.1668690562280275
aa(lp684
F-0.4546547604675575
aF-1.1897599075608698
aa(lp685
F-0.36730150570005554
aF-1.1976087582234944
aa(lp686
F-0.2799117466625496
aF-1.1901773659873884
aa(lp687
F-0.19513809223208586
aF-1.1676913016428991
aa(lp688
F-0.11555374264126117
aF-1.1308331020747475
aa(lp689
F-0.043574383143402284
aF-1.0807215526926122
aa(lp690
F0.018615141148390524
aF-1.0188777280731667
aa(lp691
F0.06912714355306238
aF-0.9471788216082093
aa(lp692
F0.10642839423393896
aF-0.8678011656032439
aa(lp693
F0.12938665950859818
aF-0.7831541713814845
aasg44
((lp694
F-0.36635352993759984
aF-0.6941810164431792
aF0.503661153685519
tp695
sbsg89
(imodels.pose
Pose
p696
(dp697
g92
F-0.6942036929274161
sg93
F-0.3660988785856205
sg94
F1.5613969597300565
sbsg95
F0.5034065018230547
sg92
F-0.6942036929274161
sg93
F-0.3660988785856205
sba(imodels.circular_obstacle
CircularObstacle
p698
(dp699
g3
(imodels.polygon
Polygon
p700
(dp701
g6
(lp702
(lp703
F-4.860885136356748
aF-3.6544013589859174
aa(lp704
F-4.468657164635484
aF-3.83721361726365
aa(lp705
F-4.050652906498518
aF-3.9491758598124047
aa(lp706
F-3.6195603681606485
aF-3.986889610177391
aa(lp707
F-3.1884648345181597
aF-3.949210113754559
aa(lp708
F-2.7704516813861333
aF-3.8372810854115857
aa(lp709
F-2.378209184976024
aF-3.6544999934268114
aa(lp710
F-2.023643384844318
aF-3.4064149335095646
aa(lp711
F-1.717516690674774
aF-3.1005562231644004
aa(lp712
F-1.4691212025418001
aF-2.7462078281456517
aa(lp713
F-1.2859966606174371
aF-2.3541255590717074
aa(lp714
F-1.1737015856123905
aF-1.9362105919949206
aa(lp715
F-1.1356445567021578
aF-1.5051482228095474
aa(lp716
F-1.1729807482897034
aF-1.0740228206642803
aa(lp717
F-1.2845768661042682
aF-0.6559206679959413
aa(lp718
F-1.4670455469580008
aF-0.26353274248767633
aa(lp719
F-1.7148481779980154
aF0.0912305019822468
aa(lp720
F-2.020463014501684
aF0.39760066254952076
aa(lp721
F-2.374613493205812
aF0.646278249016051
aa(lp722
F-2.766549810998825
aF0.8297149584611194
aa(lp723
F-3.18437522200037
aF0.9423427947120722
aa(lp724
F-3.615407148680935
aF0.9807430780342061
aa(lp725
F-4.046562145936701
aF0.9437502149581825
aa(lp726
F-4.464753033007586
aF0.8324870784391791
aa(lp727
F-4.857286138786569
aF0.6503309244265072
aa(lp728
F-5.212246602626449
aF0.40281087940437565
aa(lp729
F-5.5188600353110004
aF0.09744011054367441
aa(lp730
F-5.767819562415596
aF-0.2565122272661471
aa(lp731
F-5.951568323057489
aF-0.6483023452371706
aa(lp732
F-6.064528849132944
aF-1.0660379352051992
aa(lp733
F-6.103272362515964
aF-1.497039146047955
aa(lp734
F-6.066622851409981
aF-1.9282234650031704
aa(lp735
F-5.955692766742535
aF-2.346502821286568
aa(lp736
F-5.7738492550827605
aF-2.7391808584167636
aa(lp737
F-5.526611953039965
aF-3.094338316533273
aa(lp738
F-5.22148544546893
aF-3.4011948269003875
aasg44
((lp739
F-3.61873679752213
aF-1.5020392699457088
aF2.485074457236067
tp740
sbsg47
(imodels.polygon
Polygon
p741
(dp742
g6
(lp743
(lp744
F1.9754461588353842
aF-3.885264775786281
aa(lp745
F1.9377495354117253
aF-3.4541707394558814
aa(lp746
F1.8258038998775135
aF-3.036162033491493
aa(lp747
F1.6430072246019973
aF-2.6439267991162545
aa(lp748
F1.3949080783061678
aF-2.289370855456497
aa(lp749
F1.0890372060693139
aF-1.9832563130148693
aa(lp750
F0.7346789428050639
aF-1.7348749030149953
aa(lp751
F0.3425893986702868
aF-1.5517659383044617
aa(lp752
F-0.0753300294571218
aF-1.439487466766769
aa(lp753
F-0.5063939102731897
aF-1.4014475635995414
aa(lp754
F-0.9375178287455305
aF-1.4388008833748338
aa(lp755
F-1.3556155474723908
aF-1.5504136119167695
aa(lp756
F-1.7479962233574788
aF-1.7328978818392557
aa(lp757
F-2.102749622575939
aF-1.9807146071023585
aa(lp758
F-2.409107641103988
aF-2.286341615170606
aa(lp759
F-2.6577711573002305
aF-2.6405019733278996
aa(lp760
F-2.841192295329734
aF-3.0324455785839897
aa(lp761
F-2.95380353167105
aF-3.450275463856527
aa(lp762
F-2.992186690459361
aF-3.881308915804995
aa(lp763
F-2.955176698019533
aF-4.312462443027937
aa(lp764
F-2.843896947247559
aF-4.730648909386318
aa(lp765
F-2.661725198398009
aF-5.123174777958411
aa(lp766
F-2.414191051317221
aF-5.478125407773556
aa(lp767
F-2.10880810122677
aF-5.784726708115276
aa(lp768
F-1.7548458727623828
aF-6.033672172821317
aa(lp769
F-1.363048454930658
aF-6.2174053678557835
aa(lp770
F-0.9453083774741043
aF-6.330349297589846
aa(lp771
F-0.5143056277272063
aF-6.369075687659086
aa(lp772
F-0.08312276516377831
aF-6.332409046024103
aa(lp773
F0.33515218363888843
aF-6.221462343588624
aa(lp774
F0.727822995983077
aF-6.039603231333732
aa(lp775
F1.082970631307815
aF-5.792351819405656
aa(lp776
F1.389815019036182
aF-5.487213120947424
aa(lp777
F1.639042274386659
aF-5.133449246636253
aa(lp778
F1.8230874099141938
aF-4.741798264681871
aa(lp779
F1.9363639614191541
aF-4.32414825994546
aasg44
((lp780
F-0.5096282958819395
aF-3.885152889548193
aF2.4850744572360672
tp781
sbsg89
(imodels.pose
Pose
p782
(dp783
g92
F-3.885264775786281
sg93
F-0.5083718408909713
sg94
F-2.0941693892119986
sbsg95
F2.4838179997263556
sg92
F-3.885264775786281
sg93
F-0.5083718408909713
sba(imodels.circular_obstacle
CircularObstacle
p784
(dp785
g3
(imodels.polygon
Polygon
p786
(dp787
g6
(lp788
(lp789
F9.074389677604039
aF-4.083562565124925
aa(lp790
F9.399510344161886
aF-3.8208075116499063
aa(lp791
F9.674092650857187
aF-3.5056119805909067
aa(lp792
F9.889801988781052
aF-3.147543345435403
aa(lp793
F10.040090765733424
aF-2.7574703401250673
aa(lp794
F10.12039715034808
aF-2.3472331519767953
aa(lp795
F10.128283540884734
aF-1.9292840273288538
aa(lp796
F10.063510555638082
aF-1.516309298886648
aa(lp797
F9.928044299075623
aF-1.120844307664123
aa(lp798
F9.725996683149695
aF-0.7548929080926414
aa(lp799
F9.46350061525693
aF-0.42956310575274737
aa(lp800
F9.148523841361516
aF-0.15472988749826855
aa(lp801
F8.790627094845721
aF0.06126452164948226
aa(lp802
F8.400673892182528
aF0.2118638765033336
aa(lp803
F7.990500784226519
aF0.2924969184860484
aa(lp804
F7.572558072240376
aF0.30071613057386637
aa(lp805
F7.159531894281024
aF0.2362720286717801
aa(lp806
F6.763959153049354
aF0.10112073439702984
aa(lp807
F6.39784697359601
aF-0.10063540059172293
aa(lp808
F6.072308241777515
aF-0.36287231644393914
aa(lp809
F5.797224286245586
aF-0.6776301334375538
aa(lp810
F5.580944942843852
aF-1.0353547643583099
aa(lp811
F5.430035105589045
aF-1.425187917090867
aa(lp812
F5.349075457370611
aF-1.8352966847489411
aa(lp813
F5.340523428943731
aF-2.2532327190406307
aa(lp814
F5.404638606634904
aF-2.6663100846022236
aa(lp815
F5.539474852917601
aF-3.0619903249959903
aa(lp816
F5.740939379028283
aF-3.4282630521661646
aa(lp817
F6.002916976545996
aF-3.7540105070273246
aa(lp818
F6.317455637038441
aF-4.029345025395971
aa(lp819
F6.675007925517977
aF-4.245909165901102
aa(lp820
F7.064720781112532
aF-4.397129389859453
aa(lp821
F7.474764948407803
aF-4.478415592974152
aa(lp822
F7.892694039976615
aF-4.487300432316939
aa(lp823
F8.305822331193085
aF-4.423514219494445
aa(lp824
F8.701609819833733
aF-4.288993106708364
aasg44
((lp825
F7.733944353840308
aF-2.092097473805523
aF2.400568031934077
tp826
sbsg47
(imodels.polygon
Polygon
p827
(dp828
g6
(lp829
(lp830
F6.823720681261031
aF1.0119796029687325
aa(lp831
F6.787305953791119
aF1.4284140318683725
aa(lp832
F6.679167095739816
aF1.8322081047929726
aa(lp833
F6.502586529418155
aF2.211105148258871
aa(lp834
F6.262924141189226
aF2.5536042075540513
aa(lp835
F5.967454588696121
aF2.8493091441026355
aa(lp836
F5.625146487557794
aF3.0892441974915683
aa(lp837
F5.246390180049644
aF3.2661264336614826
aa(lp838
F4.8426823490164255
aF3.3745868094313027
aa(lp839
F4.426277050175034
aF3.4113331432142666
aa(lp840
F4.0098137552933455
aF3.375250045149306
aa(lp841
F3.605933696537857
aF3.2674327733912976
aa(lp842
F3.226896157386591
aF3.0911539888940425
aa(lp843
F2.884206357125654
aF2.8517644178037456
aa(lp844
F2.5882662240388328
aF2.556530436734099
aa(lp845
F2.3480586576414306
aF2.214413510822628
aa(lp846
F2.1708748637907154
aF1.835798179455363
aa(lp847
F2.0620930390810437
aF1.4321768463193258
aa(lp848
F2.0250151222872144
aF1.0158009415939113
aa(lp849
F2.0607665680656186
aF0.5993090448246817
aa(lp850
F2.1682621851594837
aF0.19534325635332261
aa(lp851
F2.3442390760475504
aF-0.18383453812183648
aa(lp852
F2.583355678193592
aF-0.5267148620364774
aa(lp853
F2.8783539006211853
aF-0.8228900039951452
aa(lp854
F3.220279434357029
aF-1.0633699310766733
aa(lp855
F3.5987535494896736
aF-1.2408551702495085
aa(lp856
F4.002288128777575
aF-1.3499583749165245
aa(lp857
F4.418634375347926
aF-1.3873678512087655
aa(lp858
F4.835154609892054
aF-1.3519480803882078
aa(lp859
F5.239205871909899
aF-1.2447741861253632
aa(lp860
F5.618523681258539
aF-1.0690993004398228
aa(lp861
F5.961594311394013
aF-0.8302558188705615
aa(lp862
F6.2580042744091084
aF-0.5354935421541103
aa(lp863
F6.4987564096777035
aF-0.19375961742129877
aa(lp864
F6.676542981622821
aF0.18457304147253817
aa(lp865
F6.785967497060875
aF0.5880206110163684
aasg44
((lp866
F4.423152651760047
aF1.0120876844491833
aF2.400568031934078
tp867
sbsg89
(imodels.pose
Pose
p868
(dp869
g92
F1.0119796029687325
sg93
F4.4243663802566315
sg94
F-0.9783114650724296
sbsg95
F2.3993543010044003
sg92
F1.0119796029687325
sg93
F4.4243663802566315
sba(imodels.circular_obstacle
CircularObstacle
p870
(dp871
g3
(imodels.polygon
Polygon
p872
(dp873
g6
(lp874
(lp875
F8.150611449122167
aF0.4467945614834629
aa(lp876
F8.150420224047261
aF0.5587312251233095
aa(lp877
F8.130804057367321
aF0.6689358495209916
aa(lp878
F8.09235837374585
aF0.7740633085634665
aa(lp879
F8.036250144722555
aF0.8709225872605482
aa(lp880
F7.964182466724543
aF0.956573641088416
aa(lp881
F7.878342865664589
aF1.028416637432648
aa(lp882
F7.781336897276929
aF1.084270870316305
aa(lp883
F7.676109058670901
aF1.1224409530533541
aa(lp884
F7.565853411735141
aF1.1417682796306765
aa(lp885
F7.4539166313092124
aF1.1416661927715697
aa(lp886
F7.3436964209764195
aF1.122137791197345
aa(lp887
F7.238538379941734
aF1.083775835569444
aa(lp888
F7.141634451474184
aF1.0277447559670914
aa(lp889
F7.055926035386568
aF0.9557453070414114
aa(lp890
F6.9840147054543005
aF0.8699629436954299
aa(lp891
F6.928083241836514
aF0.7730014842828277
aa(lp892
F6.889829375463389
aF0.6678040748976319
aa(lp893
F6.870414255497483
aF0.5575638537868279
aa(lp894
F6.870427204076054
aF0.44562702755799616
aa(lp895
F6.889867828160893
aF0.33539130118473093
aa(lp896
F6.928146031468516
aF0.23020274484237133
aa(lp897
F6.984099926118583
aF0.13325422805465253
aa(lp898
F7.056031100314464
aF0.047488504058109615
aa(lp899
F7.14175617154876
aF-0.024491113860606983
aa(lp900
F7.238673060499521
aF-0.08049977274434789
aa(lp901
F7.343839973954385
aF-0.11883739849538377
aa(lp902
F7.454064699332903
aF-0.1383402995380414
aa(lp903
F7.5660015003814305
aF-0.13841648924821603
aa(lp904
F7.676252672890688
aF-0.11906365498076754
aa(lp905
F7.781471677836838
aF-0.08086922826702414
aa(lp906
F7.878464721466148
aF-0.02499255405163947
aa(lp907
F7.964287698984457
aF0.046870299800272575
aa(lp908
F8.036335559244732
aF0.1325380245615001
aa(lp909
F8.0924213778773
aF0.22941028159189955
aa(lp910
F8.130842738694966
aF0.3345466324262717
aasg44
((lp911
F7.51014739970188
aF0.501726074599293
aF0.6428154243116958
tp912
sbsg47
(imodels.polygon
Polygon
p913
(dp914
g6
(lp915
(lp916
F4.386993322133083
aF0.41149500751006196
aa(lp917
F4.377242318129706
aF0.523006312563745
aa(lp918
F4.348285285878125
aF0.6311328288168376
aa(lp919
F4.301001180551684
aF0.7325925085784427
aa(lp920
F4.236825253133034
aF0.8243056677967664
aa(lp921
F4.157705485132118
aF0.9034884660886338
aa(lp922
F4.066043459998307
aF0.9677374067975516
aa(lp923
F3.9646214660024004
aF1.0151022921847646
aa(lp924
F3.8565180432910298
aF1.0441454192880237
aa(lp925
F3.745014538578976
aF1.0539852196304305
aa(lp926
F3.6334955038970334
aF1.0443230181495498
aa(lp927
F3.5253459626691717
aF1.0154520991123521
aa(lp928
F3.423848661481136
aF0.9682488038312523
aa(lp929
F3.3320844263369462
aF0.9041459303991572
aa(lp930
F3.252838647966817
aF0.8250892428619105
aa(lp931
F3.1885167347102192
aF0.7334784099388325
aa(lp932
F3.141071099298029
aF0.6320941660239968
aa(lp933
F3.1119418957603937
aF0.5240139054066553
aa(lp934
F3.102013305318732
aF0.41251827174465394
aa(lp935
F3.1115866981499636
aF0.30099157815272365
aa(lp936
F3.140371485664679
aF0.1928190805316455
aa(lp937
F3.187493940967113
aF0.09128422228030658
aa(lp938
F3.2515237197626923
aF-0.0005310305987145658
aa(lp939
F3.330517276703551
aF-0.07983973879447781
aa(lp940
F3.422076859322139
aF-0.14423458380989418
aa(lp941
F3.523423288864472
aF-0.19176093916006076
aa(lp942
F3.631480318850164
aF-0.2209762006601853
aa(lp943
F3.742968010758681
aF-0.23099357490502215
aa(lp944
F3.854502292537471
aF-0.2215089967942756
aa(lp945
F3.962697677955654
aF-0.1928103590555228
aa(lp946
F4.064270028883355
aF-0.1457687736138149
aa(lp947
F4.15613624127382
aF-0.08181213005836024
aa(lp948
F4.2355078290026835
aF-0.0028817538065739057
aa(lp949
F4.299975564941808
aF0.08862652044626573
aa(lp950
F4.347582610091762
aF0.1899350713486432
aa(lp951
F4.376883911027917
aF0.29796880217979727
aasg44
((lp952
F3.7441778984729126
aF0.4115239491779471
aF0.6428154243116957
tp953
sbsg89
(imodels.pose
Pose
p954
(dp955
g92
F0.41149500751006196
sg93
F3.7445029062994575
sg94
F-0.0855138910761668
sbsg95
F0.6424904158336259
sg92
F0.41149500751006196
sg93
F3.7445029062994575
sba(imodels.circular_obstacle
CircularObstacle
p956
(dp957
g3
(imodels.polygon
Polygon
p958
(dp959
g6
(lp960
(lp961
F-0.6238878905672043
aF6.515484874535473
aa(lp962
F-0.46639223758480286
aF6.564482250706883
aa(lp963
F-0.31979091381156843
aF6.640071108668694
aa(lp964
F-0.18853382249830064
aF6.73995704141208
aa(lp965
F-0.07660511155234806
aF6.861108134044432
aa(lp966
F0.012597760382146106
aF6.999846993844685
aa(lp967
F0.0763671496114866
aF7.151962373005874
aa(lp968
F0.1127674145934976
aF7.312836995893623
aa(lp969
F0.12069366996081454
aF7.477587710780957
aa(lp970
F0.09990532396011709
aF7.641213711925612
aa(lp971
F0.051033381319510074
aF7.798748332890558
aa(lp972
F-0.024438710125530783
aF7.945409803607809
aa(lp973
F-0.12422008767048132
aF8.076746395139901
aa(lp974
F-0.24528201006745576
aF8.18877154644792
aa(lp975
F-0.383949791248436
aF8.2780848715589
aa(lp976
F-0.5360143409107119
aF8.341975374108536
aa(lp977
F-0.696859926286955
aF8.378503736308467
aa(lp978
F-0.8616042770482175
aF8.386561184557497
aa(lp979
F-1.0252467806274699
aF8.365903144903404
aa(lp980
F-1.1828202696765313
aF8.317156666785074
aa(lp981
F-1.3295417943344314
aF8.241801389716398
aa(lp982
F-1.4609578028000443
aF8.142124630644881
aa(lp983
F-1.5730793234309126
aF8.021151955253048
aa(lp984
F-1.6625030450815514
aF7.882555340625617
aa(lp985
F-1.7265146204361945
aF7.730541716891912
aa(lp986
F-1.7631710566900833
aF7.569725271025202
aa(lp987
F-1.7713596927113078
aF7.404987388860389
aa(lp988
F-1.7508319725038333
aF7.2413284866181975
aa(lp989
F-1.7022109898196924
aF7.083716229408093
aa(lp990
F-1.6269725749129003
aF6.936934743850994
aa(lp991
F-1.5274004975234678
aF6.805439401787524
aa(lp992
F-1.4065171458499468
aF6.693221582934139
aa(lp993
F-1.2679917856652132
aF6.60368752145067
aa(lp994
F-1.1160291842574397
aF6.539554913883085
aa(lp995
F-0.9552419798798151
aF6.502770426820416
aa(lp996
F-0.7905106707777292
aF6.494450608219711
aasg44
((lp997
F-0.8253643224034168
aF7.4410112183087955
aF0.9472020722126119
tp998
sbsg47
(imodels.polygon
Polygon
p999
(dp1000
g6
(lp1001
(lp1002
F-2.4633268046807304
aF3.387795704149559
aa(lp1003
F-2.4776951145389474
aF3.552109961753256
aa(lp1004
F-2.5203639117029155
aF3.7114366617398424
aa(lp1005
F-2.5900380372046197
aF3.860939637682158
aa(lp1006
F-2.6846026184795644
aF3.9960809102391748
aa(lp1007
F-2.8011872637277633
aF4.112758431949174
aa(lp1008
F-2.9362531891338266
aF4.20743059984576
aa(lp1009
F-3.0857006343063236
aF4.277223756469095
aa(lp1010
F-3.2449933054725895
aF4.320019416211077
aa(lp1011
F-3.4092960691085374
aF4.334518569345844
aa(lp1012
F-3.573621716482342
aF4.320281111875645
aa(lp1013
F-3.732982344254401
aF4.277739204347527
aa(lp1014
F-3.8825407561612657
aF4.208184154150347
aa(lp1015
F-4.017757290171246
aF4.11372721946388
aa(lp1016
F-4.13452761435359
aF3.9972355246080404
aa(lp1017
F-4.2293073088367565
aF3.862245032003141
aa(lp1018
F-4.299219452323344
aF3.7128532123705176
aa(lp1019
F-4.342141947505059
aF3.5535946710378425
aa(lp1020
F-4.356771934721937
aF3.3893035055599943
aa(lp1021
F-4.342665338668245
aF3.224966572620945
aa(lp1022
F-4.300250347753345
aF3.0655721181197775
aa(lp1023
F-4.230814416968074
aF2.915958365088786
aa(lp1024
F-4.136465188768659
aF2.780666655371559
aa(lp1025
F-4.020066518176795
aF2.6638036027651757
aa(lp1026
F-3.885151543975435
aF2.5689164417986765
aa(lp1027
F-3.7358154446174643
aF2.4988853557826656
aa(lp1028
F-3.5765911341100076
aF2.4558360523799316
aa(lp1029
F-3.412311670973256
aF2.441075240358349
aa(lp1030
F-3.2479635566809817
aF2.4550509660500297
aa(lp1031
F-3.0885353765285206
aF2.4973390134548237
aa(lp1032
F-2.9388663772489174
aF2.566655780796341
aa(lp1033
F-2.803499577617833
aF2.6608972426784305
aa(lp1034
F-2.6865438706945173
aF2.7772028151936934
aa(lp1035
F-2.5915493034160813
aF2.912042185437026
aa(lp1036
F-2.521399319279903
aF3.061322469820898
aa(lp1037
F-2.4782232349552777
aF3.220512448533216
aasg44
((lp1038
F-3.4105288759333074
aF3.387838350307005
aF0.9472020722126123
tp1039
sbsg89
(imodels.pose
Pose
p1040
(dp1041
g92
F3.387795704149559
sg93
F-3.410049970052793
sg94
F-1.356406863109837
sbsg95
F0.9467231653720626
sg92
F3.387795704149559
sg93
F-3.410049970052793
sba(imodels.circular_obstacle
CircularObstacle
p1042
(dp1043
g3
(imodels.polygon
Polygon
p1044
(dp1045
g6
(lp1046
(lp1047
F5.248597880565536
aF0.2675228194441188
aa(lp1048
F5.072443137159955
aF0.2430281857604646
aa(lp1049
F4.903213188377599
aF0.188331703801353
aa(lp1050
F4.74604480160799
aF0.10509361814447793
aa(lp1051
F4.605708630329614
aF-0.004159481282991706
aa(lp1052
F4.486464406778875
aF-0.1361113507406242
aa(lp1053
F4.3919316430062825
aF-0.28675675318324023
aa(lp1054
F4.324979765030589
aF-0.45152303231556257
aa(lp1055
F4.287641014933811
aF-0.6254089099617732
aa(lp1056
F4.281048764647119
aF-0.8031362937261783
aa(lp1057
F4.305403113836909
aF-0.9793104870097697
aa(lp1058
F4.359964816125036
aF-1.1485839384042644
aa(lp1059
F4.443077718005295
aF-1.3058185600517396
aa(lp1060
F4.552219029350415
aF-1.446241687995288
aa(lp1061
F4.684075899609996
aF-1.5655909505356596
aa(lp1062
F4.8346459753229185
aF-1.660243647292737
aa(lp1063
F4.999358886644334
aF-1.727326711829222
aa(lp1064
F5.1732149753128205
aF-1.7648039200560586
aa(lp1065
F5.350937053140543
aF-1.7715376973154797
aa(lp1066
F5.527130584583688
aF-1.7473236480635326
aa(lp1067
F5.696447431247876
aF-1.692896760045948
aa(lp1068
F5.8537481880650315
aF-1.6099090946472132
aa(lp1069
F5.994258183626345
aF-1.5008796405949152
aa(lp1070
F6.113712409472646
aF-1.3691178531486174
aa(lp1071
F6.2084849791914944
aF-1.2186231996473424
aa(lp1072
F6.2756991877489625
aF-1.0539637605872767
aa(lp1073
F6.3133148303402
aF-0.8801375711449761
aa(lp1074
F6.320190130302215
aF-0.7024209119539617
aa(lp1075
F6.29611639634312
aF-0.5262081540819814
aa(lp1076
F6.2418243571101435
aF-0.356848019518067
aa(lp1077
F6.158961980818427
aF-0.19948122728135376
aa(lp1078
F6.05004445319849
aF-0.05888445320476876
aa(lp1079
F5.918377832120411
aF0.06067466019719747
aa(lp1080
F5.7679586962649125
aF0.1555670427790865
aa(lp1081
F5.603352833882727
aF0.2229123527345669
aa(lp1082
F5.429556653896115
aF0.2606664058367594
aasg44
((lp1083
F5.300559717444401
aF-0.7524847479700701
aF1.0213302453535966
tp1084
sbsg47
(imodels.polygon
Polygon
p1085
(dp1086
g6
(lp1087
(lp1088
F3.275461231757848
aF-3.1648481071327685
aa(lp1089
F3.259968455862067
aF-2.987674591621489
aa(lp1090
F3.213960392371855
aF-2.815878960718188
aa(lp1091
F3.138833559586084
aF-2.6546758599441604
aa(lp1092
F3.0368683403064325
aF-2.508958411569455
aa(lp1093
F2.911159763616286
aF-2.3831496898919813
aa(lp1094
F2.7655235590716223
aF-2.2810684642458936
aa(lp1095
F2.604380334913606
aF-2.2058132849454504
aa(lp1096
F2.4326213959310974
aF-2.159668430593255
aa(lp1097
F2.2554602739071683
aF-2.1440345716069045
aa(lp1098
F2.078274477260701
aF-2.1593862545875835
aa(lp1099
F1.9064422633784597
aF-2.205257498040427
aa(lp1100
F1.7451793882131634
aF-2.280255936670872
aa(lp1101
F1.5993807884131437
aF-2.3821050849242376
aa(lp1102
F1.4734720015282239
aF-2.5077134369106817
aa(lp1103
F1.3712748342491146
aF-2.653268305272095
aa(lp1104
F1.2958913561560423
aF-2.8143515506273262
aa(lp1105
F1.2496097402039925
aF-2.98607368877046
aa(lp1106
F1.2338348080410695
aF-3.1632223049627344
aa(lp1107
F1.2490453883715862
aF-3.340420270384438
aa(lp1108
F1.2947797826984404
aF-3.512288958280571
aa(lp1109
F1.3696497796143237
aF-3.673611505574488
aa(lp1110
F1.471382792255159
aF-3.8194911643436327
aa(lp1111
F1.5968908398850805
aF-3.945499936592662
aa(lp1112
F1.7423642797616132
aF-4.047812980697857
aa(lp1113
F1.9033874441653222
aF-4.123324709780156
aa(lp1114
F2.0750726725738335
aF-4.169743057983206
aa(lp1115
F2.2522086705980806
aF-4.1856590533192435
aa(lp1116
F2.4294186924273533
aF-4.170589585284471
aa(lp1117
F2.6013237453491977
aF-4.124992069085447
aa(lp1118
F2.762705862471248
aF-4.05025056136191
aa(lp1119
F2.908666487701926
aF-3.948633748846205
aa(lp1120
F3.034775165408325
aF-3.823226085162019
aa(lp1121
F3.1372040214591865
aF-3.67783416602036
aa(lp1122
F3.2128439536459816
aF-3.5168711846788123
aa(lp1123
F3.259399004664471
aF-3.3452229748767635
aasg44
((lp1124
F2.254130987439419
aF-3.1648021234807833
aF1.0213302453535966
tp1125
sbsg89
(imodels.pose
Pose
p1126
(dp1127
g92
F-3.1648481071327685
sg93
F2.2546473725644063
sg94
F1.6217399500980338
sbsg95
F1.0208138591934417
sg92
F-3.1648481071327685
sg93
F2.2546473725644063
sba(imodels.circular_obstacle
CircularObstacle
p1128
(dp1129
g3
(imodels.polygon
Polygon
p1130
(dp1131
g6
(lp1132
(lp1133
F-3.463240676590768
aF5.287112570116992
aa(lp1134
F-3.1062677159553305
aF5.531636410382335
aa(lp1135
F-2.797152305495306
aF5.8344057385829835
aa(lp1136
F-2.5452772640998775
aF6.186230363367821
aa(lp1137
F-2.3582879495097067
aF6.576431080066341
aa(lp1138
F-2.24186019286631
aF6.993163824839208
aa(lp1139
F-2.199528015824039
aF7.423779186699189
aa(lp1140
F-2.232576359660264
aF7.855206364856318
aa(lp1141
F-2.340002082459994
aF8.274349916833318
aa(lp1142
F-2.518544408257484
aF8.668487254549202
aa(lp1143
F-2.7627839038885385
aF9.025654822865292
aa(lp1144
F-3.0653069792326213
aF9.335011238617897
aa(lp1145
F-3.4169309176418414
aF9.587166367497979
aa(lp1146
F-3.806982606034307
aF9.774466350053043
aa(lp1147
F-4.223622504142001
aF9.891225925196805
aa(lp1148
F-4.654204019224257
aF9.933900999331591
aa(lp1149
F-5.085657377868504
aF9.901196222959648
aa(lp1150
F-5.504886342920914
aF9.794104309427265
aa(lp1151
F-5.899165733691422
aF9.615875902329583
aa(lp1152
F-6.256527683195234
aF9.371920906213955
aa(lp1153
F-6.566124908066277
aF9.069644275567308
aa(lp1154
F-6.818559964530283
aF8.718221246511222
aa(lp1155
F-7.00617049627652
aF8.328318833770759
aa(lp1156
F-7.123261815879157
aF7.911772046534734
aa(lp1157
F-7.166279760044645
aF7.481224651277584
aa(lp1158
F-7.1339185718762685
aF7.049745385746469
aa(lp1159
F-7.027160535522107
aF6.63043127346697
aa(lp1160
F-6.84924616014534
aF6.236010079668718
aa(lp1161
F-6.605575818245866
aF5.8784539755933825
aa(lp1162
F-6.303545823981249
aF5.568616137930748
aa(lp1163
F-5.952323927128404
aF5.315901313961058
aa(lp1164
F-5.562571037291228
aF5.127980351994303
aa(lp1165
F-5.146117625074324
aF5.010557362184651
aa(lp1166
F-4.715604622668026
aF4.967196575267703
aa(lp1167
F-4.28409972386672
aF4.999214154711108
aa(lp1168
F-3.8647007302624434
aF5.105638246187899
aasg44
((lp1169
F-4.683446293317155
aF7.451673657365593
aF2.484799075885506
tp1170
sbsg47
(imodels.polygon
Polygon
p1171
(dp1172
g6
(lp1173
(lp1174
F-2.0342041763943106
aF2.3573884435185897
aa(lp1175
F-2.0718966224996445
aF2.78843470854073
aa(lp1176
F-2.1838298528762508
aF3.2063970932362893
aa(lp1177
F-2.3666062716982155
aF3.5985888624073907
aa(lp1178
F-2.614677925104333
aF3.953105516260628
aa(lp1179
F-2.9205149025282378
aF4.259186136887206
aa(lp1180
F-3.274833897891747
aF4.507540022718562
aa(lp1181
F-3.666879992966923
aF4.690628696369464
aa(lp1182
F-4.084753109718748
aF4.80289472586662
aa(lp1183
F-4.515769222568214
aF4.840930413675279
aa(lp1184
F-4.946845366420932
aF4.803581233175419
aa(lp1185
F-5.364896754015092
aF4.691980872900292
aa(lp1186
F-5.75723394857907
aF4.509516824812431
aa(lp1187
F-6.111948036110144
aF4.2617275611428
aa(lp1188
F-6.418272105842554
aF3.9561344208639078
aa(lp1189
F-6.6669080666089275
aF3.6020133086766744
aa(lp1190
F-6.850308878985587
aF3.2101131363080952
aa(lp1191
F-6.962907636411327
aF2.7923295524885288
aa(lp1192
F-7.001286541803497
aF2.3613438651347143
aa(lp1193
F-6.964280650593583
aF1.9302381158124624
aa(lp1194
F-6.8530132311897765
aF1.5120979904212741
aa(lp1195
F-6.670861669543103
aF1.1196156192596913
aa(lp1196
F-6.423354952742134
aF0.7647043229878678
aa(lp1197
F-6.118005843395967
aF0.45813699840084854
aa(lp1198
F-5.764082838946071
aF0.20921912036855295
aa(lp1199
F-5.372328837802226
aF0.02550628556725565
aa(lp1200
F-4.954635051846669
aF-0.08742512838410432
aa(lp1201
F-4.523680063292186
aF-0.1261472270223294
aa(lp1202
F-4.092544981880219
aF-0.08948464856914118
aa(lp1203
F-3.6743163838498485
aF0.021449759404629454
aa(lp1204
F-3.2816890849779883
aF0.20328871910119473
aa(lp1205
F-2.926580805027565
aF0.4505127320805007
aa(lp1206
F-2.619770419991414
aF0.7556176168609794
aa(lp1207
F-2.3705707825410665
aF1.1093422891381015
aa(lp1208
F-2.1865460418141134
aF1.5009498706317672
aa(lp1209
F-2.073282042951046
aF1.9185535938485119
aasg44
((lp1210
F-4.5190032497613535
aF2.3575003173581024
aF2.4847990758855074
tp1211
sbsg89
(imodels.pose
Pose
p1212
(dp1213
g92
F2.3573884435185897
sg93
F-4.517746934003346
sg94
F-1.0574358269753277
sbsg95
F2.483542757609035
sg92
F2.3573884435185897
sg93
F-4.517746934003346
sba(imodels.circular_obstacle
CircularObstacle
p1214
(dp1215
g3
(imodels.polygon
Polygon
p1216
(dp1217
g6
(lp1218
(lp1219
F2.8204583109017887
aF0.5688379844127454
aa(lp1220
F3.1159375573669696
aF0.42815676758874943
aa(lp1221
F3.4313491272626435
aF0.34089433904898137
aa(lp1222
F3.757119089507602
aF0.30969944270950833
aa(lp1223
F4.0833590967343305
aF0.33551896136140513
aa(lp1224
F4.40016653393681
aF0.4175691752057893
aa(lp1225
F4.697925100194961
aF0.5533595507064182
aa(lp1226
F4.967596699686435
aF0.7387683376783998
aa(lp1227
F5.200995781992316
aF0.9681676799561933
aa(lp1228
F5.391037804433485
aF1.2345944420601196
aa(lp1229
F5.531954274668373
aF1.5299615666275836
aa(lp1230
F5.619467846197985
aF1.8453035471135997
aa(lp1231
F5.65092215196904
aF2.17104856473808
aa(lp1232
F5.625362435135555
aF2.4973090292968485
aa(lp1233
F5.543564529531085
aF2.81418170482668
aa(lp1234
F5.408011310184921
aF3.1120483101781415
aa(lp1235
F5.222817328697966
aF3.3818674701348064
aa(lp1236
F4.9936039210789005
aF3.615449155260949
aa(lp1237
F4.7273285789890505
aF3.80570328019296
aa(lp1238
F4.43207376362233
aF3.946854914478487
aa(lp1239
F4.116801572515778
aF4.034619573502408
aa(lp1240
F3.791081706078526
aF4.066333268758726
aa(lp1241
F3.464800991081331
aF4.0410333699519985
aa(lp1242
F3.1478632781646225
aF3.9594878244584657
aa(lp1243
F2.8498888226078876
aF3.82417184722599
aa(lp1244
F2.5799222732881635
aF3.6391927886622906
aa(lp1245
F2.3461581334643924
aF3.4101654610545054
aa(lp1246
F2.155692026688592
aF3.1440417078335994
aa(lp1247
F2.0143053178618056
aF2.8488993888994267
aa(lp1248
F1.9262896269983347
aF2.533697187097889
aa(lp1249
F1.8943165623675597
aF2.208002678398665
aa(lp1250
F1.919356627103945
aF1.8817019198694993
aa(lp1251
F2.000649760775547
aF1.5646993705476326
aa(lp1252
F2.135728410085558
aF1.2666172537420528
aa(lp1253
F2.320492428424059
aF0.9965034862548663
aa(lp1254
F2.549333530786016
aF0.7625570399718011
aasg44
((lp1255
F3.7731592308440196
aF2.188806066383507
aF1.8793444680161224
tp1256
sbsg47
(imodels.polygon
Polygon
p1257
(dp1258
g6
(lp1259
(lp1260
F1.852227960026886
aF4.391496434235215
aa(lp1261
F1.8237197837475583
aF4.717512497863893
aa(lp1262
F1.7390605856107901
aF5.03363274401961
aa(lp1263
F1.6008200916688629
aF5.330261730623084
aa(lp1264
F1.4131944224447808
aF5.598395648855983
aa(lp1265
F1.1818787248439373
aF5.82989562272671
aa(lp1266
F0.9138943029597902
aF6.017734754661808
aa(lp1267
F0.6173754950057563
aF6.156211418357286
aa(lp1268
F0.30132276546249137
aF6.241122324647134
aa(lp1269
F-0.024670492974626698
aF6.269890107187022
aa(lp1270
F-0.35070915505623534
aF6.241641555246325
aa(lp1271
F-0.6668967173610714
aF6.157234118948111
aa(lp1272
F-0.9636356945107675
aF6.019229882423053
aa(lp1273
F-1.2319189390589589
aF5.831817794890241
aa(lp1274
F-1.463603042397025
aF5.6006865202449685
aa(lp1275
F-1.651655517927521
aF5.332851764648231
aa(lp1276
F-1.790368263563465
aF5.036443323376986
aa(lp1277
F-1.875530824161304
aF4.72045831086669
aa(lp1278
F-1.9045581947190566
aF4.3944880643453015
aa(lp1279
F-1.8765692850304234
aF4.068427010563724
aa(lp1280
F-1.7924136640965853
aF3.752172332615789
aa(lp1281
F-1.6546457725018981
aF3.4553235530928377
aa(lp1282
F-1.4674473855051675
aF3.1868911523575054
aa(lp1283
F-1.2365006803842056
aF2.9550230664714072
aa(lp1284
F-0.9688157609186262
aF2.76675736659642
aa(lp1285
F-0.6725178742935307
aF2.6278086269828007
aa(lp1286
F-0.3566007791937831
aF2.542394466081645
aa(lp1287
F-0.030653751297699233
aF2.5131075259133384
aa(lp1288
F0.2954294874166878
aF2.5408367756011234
aa(lp1289
F0.6117510804591393
aF2.6247405278044487
aa(lp1290
F0.9087094741127527
aF2.7622719871051413
aa(lp1291
F1.1772908608124872
aF2.9492565548564906
aa(lp1292
F1.4093427822106401
aF3.180018544001447
aa(lp1293
F1.5978215870439982
aF3.4475534575871345
aa(lp1294
F1.7370062325228492
aF3.743740601672826
aa(lp1295
F1.8226719395630981
aF4.059589579027519
aasg44
((lp1296
F-0.027116506084429122
aF4.391581048513868
aF1.879344468016122
tp1297
sbsg89
(imodels.pose
Pose
p1298
(dp1299
g92
F4.391496434235215
sg93
F-0.026166308503945652
sg94
F-2.10237379159594
sbsg95
F1.8783942685308317
sg92
F4.391496434235215
sg93
F-0.026166308503945652
sba(imodels.circular_obstacle
CircularObstacle
p1300
(dp1301
g3
(imodels.polygon
Polygon
p1302
(dp1303
g6
(lp1304
(lp1305
F-3.5734448159746157
aF-3.1111982498847683
aa(lp1306
F-3.4559356215302857
aF-3.210371249702386
aa(lp1307
F-3.3229972817384277
aF-3.287644094125023
aa(lp1308
F-3.178664976740462
aF-3.340671260801688
aa(lp1309
F-3.0273197365071645
aF-3.367843175171239
aa(lp1310
F-2.8735554600509974
aF-3.368335067122659
aa(lp1311
F-2.7220394732599407
aF-3.3421320058794914
aa(lp1312
F-2.5773708579486523
aF-3.2900293532052296
aa(lp1313
F-2.443940852374692
aF-3.213608621173184
aa(lp1314
F-2.3257995605908497
aF-3.115189467308575
aa(lp1315
F-2.2265330165075397
aF-2.997759284231408
aa(lp1316
F-2.149154334234805
aF-2.8648825210200934
aa(lp1317
F-2.096012248701675
aF-2.7205924887345265
aa(lp1318
F-2.0687198226901335
aF-2.5692689342091812
aa(lp1319
F-2.068105484294178
aF-2.41550509821347
aa(lp1320
F-2.094187881001804
aF-2.2639682932657395
aa(lp1321
F-2.1461753136733965
aF-2.119258233090238
aa(lp1322
F-2.222489767597409
aF-1.9857674139525145
aa(lp1323
F-2.320814811190149
aF-1.867547785826444
aa(lp1324
F-2.4381659084334073
aF-1.7681877604259646
aa(lp1325
F-2.5709810108021958
aF-1.6907032893717657
aa(lp1326
F-2.7152286788758135
aF-1.6374463186814978
aa(lp1327
F-2.8665304517334422
aF-1.610033398335084
aa(lp1328
F-3.020293749761462
aF-1.6092966138841671
aa(lp1329
F-3.1718512767708744
aF-1.635258329516458
aa(lp1330
F-3.316602690044681
aF-1.6871305092182602
aa(lp1331
F-3.450154238094791
aF-1.763338636640471
aa(lp1332
F-3.568452127595727
aF-1.861569507609862
aa(lp1333
F-3.667905571305574
aF-1.978841444602617
aa(lp1334
F-3.7454957820055186
aF-2.111594801905997
aa(lp1335
F-3.7988676040807445
aF-2.2558000142949775
aa(lp1336
F-3.826401001378502
aF-2.4070799095389406
aa(lp1337
F-3.8272602314171578
aF-2.5608425720923744
aa(lp1338
F-3.8014192133234723
aF-2.712420725055334
aa(lp1339
F-3.7496623194854926
aF-2.8572133996353166
aa(lp1340
F-3.673560566891424
aF-2.990825591907922
aasg44
((lp1341
F-2.9472803816279844
aF-2.488587650545413
aF0.8830208702235458
tp1342
sbsg47
(imodels.polygon
Polygon
p1343
(dp1344
g6
(lp1345
(lp1346
F2.425039376869137
aF-4.816676571836986
aa(lp1347
F2.4116446453257327
aF-4.6634960383522746
aa(lp1348
F2.371867031331386
aF-4.514965111954109
aa(lp1349
F2.3069139355375143
aF-4.375592266612655
aa(lp1350
F2.218756929446227
aF-4.2496079939878495
aa(lp1351
F2.1100719107772012
aF-4.1408363920473885
aa(lp1352
F1.9841578798766863
aF-4.052579089266458
aa(lp1353
F1.8448368026110507
aF-3.9875150277476497
aa(lp1354
F1.696337599283826
aF-3.947619147221457
aa(lp1355
F1.5431677809502966
aF-3.934102438174717
aa(lp1356
F1.389976629451745
aF-3.9473751837207005
aa(lp1357
F1.2414140741714947
aF-3.9870345059587713
aa(lp1358
F1.1019895491356078
aF-4.051876594838587
aa(lp1359
F0.9759351146777159
aF-4.139933248336671
aa(lp1360
F0.8670769984418445
aF-4.248531614813143
aa(lp1361
F0.7787194549384329
aF-4.374375324142705
aa(lp1362
F0.7135444689541721
aF-4.513644544983967
aa(lp1363
F0.673530347195561
aF-4.66211193107151
aa(lp1364
F0.6598916692169223
aF-4.815270937123311
aa(lp1365
F0.6730424203487543
aF-4.968472609491628
aa(lp1366
F0.7125834256811323
aF-5.11706669944505
aa(lp1367
F0.7773144665281688
aF-5.256542815761213
aa(lp1368
F0.8652707115931257
aF-5.382667332116495
aa(lp1369
F0.973782357010874
aF-5.4916118936168905
aa(lp1370
F1.099555664967416
aF-5.580069621812054
aa(lp1371
F1.23877294106863
aF-5.645355490931941
aa(lp1372
F1.3872084157679283
aF-5.685487828548562
aa(lp1373
F1.5403565124143113
aF-5.699248466810318
aa(lp1374
F1.6935686085016477
aF-5.686219718432007
aa(lp1375
F1.8421941388993286
aF-5.64679705507971
aa(lp1376
F1.981721758048896
aF-5.582177103313757
aa(lp1377
F2.10791627632143
aF-5.494321322458178
aa(lp1378
F2.2169472140006445
aF-5.38589646691033
aa(lp1379
F2.3055050707933025
aF-5.260193640084233
aa(lp1380
F2.3709017816486733
aF-5.121028397005799
aa(lp1381
F2.411152309673931
aF-4.972624927823072
aasg44
((lp1382
F1.5420185075405768
aF-4.816636815328671
aF0.8830208702235449
tp1383
sbsg89
(imodels.pose
Pose
p1384
(dp1385
g92
F-4.816676571836986
sg93
F1.5424649633706182
sg94
F-2.3589953160843793
sbsg95
F0.8825744134985188
sg92
F-4.816676571836986
sg93
F1.5424649633706182
sba(imodels.circular_obstacle
CircularObstacle
p1386
(dp1387
g3
(imodels.polygon
Polygon
p1388
(dp1389
g6
(lp1390
(lp1391
F-3.6262657928215756
aF-4.421408387412795
aa(lp1392
F-3.373133258470096
aF-4.4804641686088384
aa(lp1393
F-3.113592704987394
aF-4.4946897208923255
aa(lp1394
F-2.8555221673252102
aF-4.46365324508354
aa(lp1395
F-2.606755059909293
aF-4.388296815312784
aa(lp1396
F-2.3748424029589024
aF-4.270907783516416
aa(lp1397
F-2.166823620535869
aF-4.1150493496762275
aa(lp1398
F-1.9890128674670877
aF-3.925452405257309
aa(lp1399
F-1.8468073709244748
aF-3.7078719328041343
aa(lp1400
F-1.7445236042185006
aF-3.4689123205088435
aa(lp1401
F-1.6852662655487056
aF-3.2158268941136225
aa(lp1402
F-1.6708340387004306
aF-2.9562977511102257
aa(lp1403
F-1.7016649962061443
aF-2.6982025800993004
aa(lp1404
F-1.7768233021913886
aF-2.449375543221661
aa(lp1405
F-1.8940276185241447
aF-2.2173694797818246
aa(lp1406
F-2.0497203520338085
aF-2.0092266490809654
aa(lp1407
F-2.2391756408854464
aF-1.831264971279199
aa(lp1408
F-2.4566428023154705
aF-1.6888862546834735
aa(lp1409
F-2.695520887548773
aF-1.5864122304863684
aa(lp1410
F-2.9485590454970723
aF-1.5269533719200532
aa(lp1411
F-3.208076613444306
aF-1.5123144796589911
aa(lp1412
F-3.466196254136447
aF-1.542939899310602
aa(lp1413
F-3.715083062685544
aF-1.6179000338497223
aa(lp1414
F-3.9471823854913524
aF-1.7349195603953507
aa(lp1415
F-4.155449132479108
aF-1.8904464948440707
aa(lp1416
F-4.333561622161893
aF-2.0797600079879484
aa(lp1417
F-4.476113468523215
aF-2.2971137204909917
aa(lp1418
F-4.57877768522895
aF-2.5359101271810345
aa(lp1419
F-4.638438025986762
aF-2.7889008562217232
aa(lp1420
F-4.653283574377558
aF-3.048406684543274
aa(lp1421
F-4.622863712000741
aF-3.306550631233592
aa(lp1422
F-4.5481017964426895
aF-3.555497053625978
aa(lp1423
F-4.431267133890521
aF-3.787689488615145
aa(lp1424
F-4.275906097128025
aF-3.996080019820285
aa(lp1425
F-4.086734479742485
aF-4.17434320843649
aa(lp1426
F-3.869494353998305
aF-4.3170680941661015
aasg44
((lp1427
F-3.161723422132991
aF-3.0028433948675337
aF1.49269094331007
tp1428
sbsg47
(imodels.polygon
Polygon
p1429
(dp1430
g6
(lp1431
(lp1432
F1.9828603776133327
aF-3.6830311690292867
aa(lp1433
F1.9602174309547244
aF-3.424089163540619
aa(lp1434
F1.892975889833716
aF-3.173007024813968
aa(lp1435
F1.783176788701578
aF-2.9374060430026594
aa(lp1436
F1.6341529445103515
aF-2.7244375967427814
aa(lp1437
F1.4504277931448235
aF-2.5405660818319835
aa(lp1438
F1.2375780860781251
aF-2.391372692429173
aa(lp1439
F1.0020646149254342
aF-2.281386010755944
aa(lp1440
F0.7510361020442013
aF-2.2139445475414314
aa(lp1441
F0.4921122098410341
aF-2.1910954056266796
aa(lp1442
F0.2331522552713992
aF-2.2135321426704286
aa(lp1443
F-0.017983350080364557
aF-2.280573719057629
aa(lp1444
F-0.2536716931471479
aF-2.390185170021076
aa(lp1445
F-0.4667587435491771
aF-2.5390393744992856
aa(lp1446
F-0.6507765054056368
aF-2.7226180458127507
aa(lp1447
F-0.8001393454110816
aF-2.9353488787105366
aa(lp1448
F-0.9103135378788517
aF-3.1707746898569615
aa(lp1449
F-0.9779548804197863
aF-3.4217494177064762
aa(lp1450
F-1.0010102031012114
aF-3.680655032431096
aa(lp1451
F-0.9787796899002713
aF-3.9396327718657824
aa(lp1452
F-0.911938120760378
aF-4.190821684588448
aa(lp1453
F-0.8025143894742256
aF-4.426597239452164
aa(lp1454
F-0.6538299191028917
aF-4.639802758870105
aa(lp1455
F-0.47039784425539544
aF-4.8239666509798775
aa(lp1456
F-0.25778602042687104
aF-4.973498846871554
aa(lp1457
F-0.022448018578771323
aF-5.083860480268407
aa(lp1458
F0.22847276508683073
aF-5.151701659241931
aa(lp1459
F0.4873599381514471
aF-5.1749631480698115
aa(lp1460
F0.746355298223992
aF-5.152938872808856
aa(lp1461
F0.9975973590295424
aF-5.086297353302938
aa(lp1462
F1.233459976176349
aF-4.977061411083643
aa(lp1463
F1.4467838294088335
aF-4.82854676910541
aa(lp1464
F1.6310937349869055
aF-4.645261407044824
aa(lp1465
F1.7807951919410154
aF-4.432768727110444
aa(lp1466
F1.8913441962826298
aF-4.197518683797046
aa(lp1467
F1.9593851686681862
aF-3.9466520034333414
aasg44
((lp1468
F0.49016943581617756
aF-3.6829639631659834
aF1.4926909433100697
tp1469
sbsg89
(imodels.pose
Pose
p1470
(dp1471
g92
F-3.6830311690292867
sg93
F0.49092414116523997
sg94
F-1.887218723465666
sbsg95
F1.4919362364480928
sg92
F-3.6830311690292867
sg93
F0.49092414116523997
sba(imodels.circular_obstacle
CircularObstacle
p1472
(dp1473
g3
(imodels.polygon
Polygon
p1474
(dp1475
g6
(lp1476
(lp1477
F-2.378435923571401
aF0.43816236159835187
aa(lp1478
F-2.3914075440557396
aF0.42227250975770936
aa(lp1479
F-2.40142443651247
aF0.40437244844447484
aa(lp1480
F-2.4081825504653844
aF0.3850055120500251
aa(lp1481
F-2.411476751660068
aF0.3647595601584439
aa(lp1482
F-2.411207048662421
aF0.3442491337903668
aa(lp1483
F-2.4073816279759157
aF0.324096801764556
aa(lp1484
F-2.4001166055503282
aF0.3049142633855255
aa(lp1485
F-2.389632502224603
aF0.2872837810619253
aa(lp1486
F-2.3762475500874425
aF0.27174050644577097
aa(lp1487
F-2.36036803293284
aF0.25875623656087043
aa(lp1488
F-2.3424759540141666
aF0.2487250929832303
aa(lp1489
F-2.3231144054270105
aF0.24195155876434304
aa(lp1490
F-2.3028710832151775
aF0.23864123622186995
aa(lp1491
F-2.2823604485786033
aF0.23889460613363767
aa(lp1492
F-2.262205076657783
aF0.2427039777669484
aa(lp1493
F-2.243016759029514
aF0.24995372232133706
aa(lp1494
F-2.2253779335244612
aF0.26042378269888955
aa(lp1495
F-2.2098240050416758
aF0.27379635306735883
aa(lp1496
F-2.1968270939900103
aF0.2896655254661429
aa(lp1497
F-2.1867817056525727
aF0.30754961064423725
aa(lp1498
F-2.1799927554630565
aF0.32690575914623876
aa(lp1499
F-2.1766663136719906
aF0.34714643884129615
aa(lp1500
F-2.1769033503372066
aF0.3676572687398303
aa(lp1501
F-2.1806966705016624
aF0.38781566777440624
aa(lp1502
F-2.1879311325875266
aF0.40700975248390625
aa(lp1503
F-2.1983871433774596
aF0.4246569099849897
aa(lp1504
F-2.211747323497205
aF0.44022148247109527
aa(lp1505
F-2.2276061410769534
aF0.4532310264477122
aa(lp1506
F-2.2454822211735204
aF0.4632906531748011
aa(lp1507
F-2.2648329573159294
aF0.47009501502982687
aa(lp1508
F-2.285070981658862
aF0.4734375739600689
aa(lp1509
F-2.3055819938126927
aF0.47321687069171636
aa(lp1510
F-2.3257434071778516
aF0.4694396044015994
aa(lp1511
F-2.3449432467969142
aF0.4622204293718948
aa(lp1512
F-2.362598725103326
aF0.4517784748001157
aasg44
((lp1513
F-2.2940255389550486
aF0.35600115301126434
aF0.117794640062999
tp1514
sbsg47
(imodels.polygon
Polygon
p1515
(dp1516
g6
(lp1517
(lp1518
F-0.591140055614694
aF3.0011396861450255
aa(lp1519
F-0.5929269075839985
aF3.021573909632769
aa(lp1520
F-0.5982332257934908
aF3.041387877346654
aa(lp1521
F-0.6068979434666751
aF3.0599801606155603
aa(lp1522
F-0.6186580537332942
aF3.0767864135002525
aa(lp1523
F-0.6331565928800724
aF3.091296502821707
aa(lp1524
F-0.6499534755461103
aF3.1030699926276495
aa(lp1525
F-0.6685388529738716
aF3.111749513085308
aa(lp1526
F-0.6883485888424522
aF3.117071608004072
aa(lp1527
F-0.7087813829332028
aF3.118874731724799
aa(lp1528
F-0.7292170228598559
aF3.117104152640025
aa(lp1529
F-0.7490352098542882
aF3.111813614504733
aa(lp1530
F-0.7676343871742978
aF3.1031637051106356
aa(lp1531
F-0.7844499996201886
aF3.0914169818408523
aa(lp1532
F-0.7989716299149452
aF3.076930002062801
aa(lp1533
F-0.8107584917942122
aF3.0601425002669314
aa(lp1534
F-0.8194528095323461
aF3.0415640404659783
aa(lp1535
F-0.824790677785448
aF3.021758549004775
aa(lp1536
F-0.8266100721141711
aF3.0013271972681945
aa(lp1537
F-0.8248557670367158
aF2.9808901538616137
aa(lp1538
F-0.8195810123305474
aF2.9610677601540663
aa(lp1539
F-0.8109459167007582
aF2.942461700577368
aa(lp1540
F-0.7992125878768351
aF2.925636739233669
aa(lp1541
F-0.784737176654231
aF2.911103577174304
aa(lp1542
F-0.7679590663740936
aF2.899303350696189
aa(lp1543
F-0.7493875359812252
aF2.890594241190963
aa(lp1544
F-0.7295863014867814
aF2.885240602988459
aa(lp1545
F-0.7091564050606334
aF2.8834049392054837
aa(lp1546
F-0.6887179711339964
aF2.885142969163152
aa(lp1547
F-0.6688913832834339
aF2.8904019370952834
aa(lp1548
F-0.6502784532488248
aF2.8990222134849364
aa(lp1549
F-0.6334441536766374
aF2.910742140422469
aa(lp1550
F-0.61889946906867
aF2.925205973910242
aa(lp1551
F-0.6070858854746595
aF2.9419746820350374
aa(lp1552
F-0.5983619897251035
aF2.960539271242939
aa(lp1553
F-0.5929925849681349
aF2.9803362362139416
aasg44
((lp1554
F-0.7089346955583025
aF3.001144989647746
aF0.1177946400629991
tp1555
sbsg89
(imodels.pose
Pose
p1556
(dp1557
g92
F3.0011396861450255
sg93
F-0.7088751385245142
sg94
F2.3697414516481103
sbsg95
F0.11773508290982022
sg92
F3.0011396861450255
sg93
F-0.7088751385245142
sba(imodels.circular_obstacle
CircularObstacle
p1558
(dp1559
g3
(imodels.polygon
Polygon
p1560
(dp1561
g6
(lp1562
(lp1563
F-3.3083215124791527
aF1.794487842056986
aa(lp1564
F-3.078850961872516
aF2.153363096844861
aa(lp1565
F-2.9151498223405388
aF2.546618890204231
aa(lp1566
F-2.8221870410537804
aF2.962318425193393
aa(lp1567
F-2.8027843891395694
aF3.387843652639982
aa(lp1568
F-2.857530810282757
aF3.810278276536732
aa(lp1569
F-2.98476454406301
aF4.2167998123538535
aa(lp1570
F-3.1806235666527956
aF4.595068797819156
aa(lp1571
F-3.439162817810576
aF4.933603342150379
aa(lp1572
F-3.752534655887727
aF5.222127644757498
aa(lp1573
F-4.111227063358908
aF5.451883904557537
aa(lp1574
F-4.504352372439398
aF5.615898152277497
aa(lp1575
F-4.919977746877629
aF5.709191936732067
aa(lp1576
F-5.345487388553737
aF5.728933439599022
aa(lp1577
F-5.767965474547388
aF5.67452343178873
aa(lp1578
F-6.174588201090189
aF5.547613462307702
aa(lp1579
F-6.553013034389663
aF5.3520557275155465
aa(lp1580
F-6.891753353093831
aF5.093786142432487
aa(lp1581
F-7.180527110584129
aF4.780644163324432
aa(lp1582
F-7.410568933880779
aF4.422134830629831
aa(lp1583
F-7.574896185781328
aF4.029140255123261
aa(lp1584
F-7.668520914242734
aF3.613589304799113
aa(lp1585
F-7.688601255543627
aF3.1880955187246096
aa(lp1586
F-7.634527695569592
aF2.7655742385427597
aa(lp1587
F-7.507941570866013
aF2.358850579128525
aa(lp1588
F-7.31268524788175
aF1.9802701379678123
aa(lp1589
F-7.054685492651543
aF1.6413242596982454
aa(lp1590
F-6.741773571087288
aF1.3523012304466955
aa(lp1591
F-6.38344754051306
aF1.1219739895313126
aa(lp1592
F-5.99058394779255
aF0.9573338376560552
aa(lp1593
F-5.575107685098436
aF0.8633782245586568
aa(lp1594
F-5.149630024446606
aF0.8429590575574982
aa(lp1595
F-4.727065818012651
aF0.8966961354052664
aa(lp1596
F-4.320241483645232
aF1.0229583350585367
aa(lp1597
F-3.9415056746948927
aF1.2179131224157782
aa(lp1598
F-3.602354451797822
aF1.475642884186118
aasg44
((lp1599
F-5.246526093333976
aF3.2868660022922818
aF2.4461867407035607
tp1600
sbsg47
(imodels.polygon
Polygon
p1601
(dp1602
g6
(lp1603
(lp1604
F-0.7370710280425676
aF0.7503156828622362
aa(lp1605
F-0.7741777554163667
aF1.1746637391537456
aa(lp1606
F-0.8843716083715774
aF1.5861312310235902
aa(lp1607
F-1.0643077877490734
aF1.9722285677740592
aa(lp1608
F-1.3085245516699946
aF2.321236238627822
aa(lp1609
F-1.6096090000069685
aF2.6225605440935373
aa(lp1610
F-1.9584220838691904
aF2.867055154711649
aa(lp1611
F-2.3443760102146194
aF3.047298736659308
aa(lp1612
F-2.7557556213127543
aF3.15782021722993
aa(lp1613
F-3.1800739939788487
aF3.19526485253024
aa(lp1614
F-3.6044514648012536
aF3.1584960566136755
aa(lp1615
F-4.016006576516323
aF3.048629901151802
aa(lp1616
F-4.402247078833483
aF2.8690012384485373
aa(lp1617
F-4.751449115360343
aF2.6250624760915295
aa(lp1618
F-5.0530130868741105
aF2.3242180758118844
aa(lp1619
F-5.297785389146497
aF1.9755998001362525
aa(lp1620
F-5.4783362593653155
aF1.5897895289432706
aa(lp1621
F-5.589185297465663
aF1.1784980594876018
aa(lp1622
F-5.62696781694748
aF0.7542096395226185
aa(lp1623
F-5.5905369758045795
aF0.3298030232824902
aa(lp1624
F-5.480998587506163
aF-0.08183944729575465
aa(lp1625
F-5.301677555386192
aF-0.4682228702504707
aa(lp1626
F-5.0580169492835285
aF-0.8176190510087298
aa(lp1627
F-4.757412787837578
aF-1.1194224973378792
aa(lp1628
F-4.408989541420048
aF-1.364472336045532
aa(lp1629
F-4.023323170035823
aF-1.545330380041643
aa(lp1630
F-3.612120103037485
aF-1.656506905378314
aa(lp1631
F-3.187861904830314
aF-1.6946272850823694
aa(lp1632
F-2.763426412304116
aF-1.658534421815253
aa(lp1633
F-2.3516968439001427
aF-1.5493238701425667
aa(lp1634
F-1.9651707453276344
aF-1.3703105823198682
aa(lp1635
F-1.6155806419027894
aF-1.1269282869855919
aa(lp1636
F-1.3135379121427881
aF-0.8265645549973546
aa(lp1637
F-1.0682106923948753
aF-0.4783365587857693
aa(lp1638
F-0.8870455893101279
aF-0.09281433177535714
aa(lp1639
F-0.775541647238208
aF0.3183000720068464
aasg44
((lp1640
F-3.183257766266801
aF0.7504258182472271
aF2.446186740703562
tp1641
sbsg89
(imodels.pose
Pose
p1642
(dp1643
g92
F0.7503156828622362
sg93
F-3.182020972926365
sg94
F-0.6561209435662567
sbsg95
F2.4449499448837972
sg92
F0.7503156828622362
sg93
F-3.182020972926365
sba(imodels.circular_obstacle
CircularObstacle
p1644
(dp1645
g3
(imodels.polygon
Polygon
p1646
(dp1647
g6
(lp1648
(lp1649
F2.230445857651227
aF2.9861743378931505
aa(lp1650
F2.0439698533905606
aF2.8242382527366163
aa(lp1651
F1.8884297696749188
aF2.632394883816605
aa(lp1652
F1.7685468348420939
aF2.416467401136152
aa(lp1653
F1.6879599482396337
aF2.1830100184116605
aa(lp1654
F1.64911522590138
aF1.9391090479598954
aa(lp1655
F1.6531917516975225
aF1.6921678043850692
aa(lp1656
F1.7000657876908756
aF1.4496818860505356
aa(lp1657
F1.788314530050095
aF1.2190116553902608
aa(lp1658
F1.915259296513683
aF1.007158824140939
aa(lp1659
F2.077046834502336
aF0.8205539249758358
aa(lp1660
F2.2687662818716694
aF0.6648611205780548
aa(lp1661
F2.4845982301052225
aF0.5448062749342522
aa(lp1662
F2.7179913653174754
aF0.4640335055336471
aa(lp1663
F2.961861325346037
aF0.4249945706542735
aa(lp1664
F3.208805736870035
aF0.42887444924963924
aa(lp1665
F3.4513289053669043
aF0.4755553723669821
aa(lp1666
F3.682069337719722
aF0.5636203978792884
aa(lp1667
F3.8940231913055783
aF0.6903964200244634
aa(lp1668
F4.080756867042172
aF0.8520353082498802
aa(lp1669
F4.236602293391628
aF1.0436307124922695
aa(lp1670
F4.3568289737152694
aF1.2593669894120425
aa(lp1671
F4.437787574693072
aF1.492695729108989
aa(lp1672
F4.477020697357558
aF1.736534524067547
aa(lp1673
F4.473337468423342
aF1.9834819469442935
aa(lp1674
F4.426849687784079
aF2.226042211810747
aa(lp1675
F4.338968434963918
aF2.4568526995352156
aa(lp1676
F4.212361237530436
aF2.6689074410499667
aa(lp1677
F4.0508711015693475
aF2.8557697749434445
aa(lp1678
F3.85939986195151
aF3.011767724417328
aa(lp1679
F3.6437593931517256
aF3.132166163180702
aa(lp1680
F3.4104951969323167
aF3.2133105443969128
aa(lp1681
F3.166687721670802
aF3.2527378299673626
aa(lp1682
F2.9197374440396393
aF3.2492512530299638
aa(lp1683
F2.677140236619879
aF3.202956644348372
aa(lp1684
F2.446259839889075
aF3.1152592199490505
aasg44
((lp1685
F3.0635181692995204
aF1.8383299129172614
aF1.4182934464994403
tp1686
sbsg47
(imodels.polygon
Polygon
p1687
(dp1688
g6
(lp1689
(lp1690
F4.752694005822403
aF-2.0847013532248515
aa(lp1691
F4.731179610629432
aF-1.8386653261062016
aa(lp1692
F4.667289468110735
aF-1.6000974206164045
aa(lp1693
F4.5629628851263755
aF-1.3762390727183287
aa(lp1694
F4.421366567056758
aF-1.1738852278080434
aa(lp1695
F4.246798496347483
aF-0.9991780884871497
aa(lp1696
F4.04455747252738
aF-0.857420675541495
aa(lp1697
F3.8207822736523305
aF-0.7529158612539217
aa(lp1698
F3.5822653212318616
aF-0.6888357609972895
aa(lp1699
F3.3362465046109606
aF-0.6671254475656518
aa(lp1700
F3.090193423014945
aF-0.6884439108768949
aa(lp1701
F2.851574715740396
aF-0.7521440551425969
aa(lp1702
F2.627633360776006
aF-0.8562923406664664
aa(lp1703
F2.425166823095463
aF-0.9977274740686779
aa(lp1704
F2.2503207259510942
aF-1.1721563654663776
aa(lp1705
F2.1084023080229284
aF-1.374284439947917
aa(lp1706
F2.0037193287024415
aF-1.5979763478959574
aa(lp1707
F1.9394493113433935
aF-1.8364421959948334
aa(lp1708
F1.9175430934403868
aF-2.0824436461085156
aa(lp1709
F1.938665611351091
aF-2.328513626150698
aa(lp1710
F2.002175716969222
aF-2.567182983893208
aa(lp1711
F2.106145638988389
aF-2.7912072039145626
aa(lp1712
F2.247419498034038
aF-2.993786305973977
aa(lp1713
F2.421709099508465
aF-3.1687712500655576
aa(lp1714
F2.623724096474686
aF-3.31085058298061
aa(lp1715
F2.847332571644552
aF-3.4157116609507305
aa(lp1716
F3.0857471642019756
aF-3.480171554656241
aa(lp1717
F3.3317310918099827
aF-3.502273663139088
aa(lp1718
F3.5778178142564183
aF-3.481347104023479
aa(lp1719
F3.8165376711179775
aF-3.4180270773269847
aa(lp1720
F4.0406446141344015
aF-3.3142355847436233
aa(lp1721
F4.243336152109918
aF-3.1731230896414244
aa(lp1722
F4.4184598321844
aF-2.9989728886136375
aa(lp1723
F4.560699989988672
aF-2.7970710972677844
aa(lp1724
F4.665739100112207
aF-2.573546196674352
aa(lp1725
F4.7303888292878185
aF-2.335183010845734
aasg44
((lp1726
F3.3344005607604723
aF-2.084637496981925
aF1.41829344649944
tp1727
sbsg89
(imodels.pose
Pose
p1728
(dp1729
g92
F-2.0847013532248515
sg93
F3.335117650694869
sg94
F2.1986547897818856
sbsg95
F1.417576355127534
sg92
F-2.0847013532248515
sg93
F3.335117650694869
sba(imodels.circular_obstacle
CircularObstacle
p1730
(dp1731
g3
(imodels.polygon
Polygon
p1732
(dp1733
g6
(lp1734
(lp1735
F7.511493504573447
aF3.851808391916977
aa(lp1736
F7.511260100437501
aF3.977482985068174
aa(lp1737
F7.4892180255036624
aF4.101209719341007
aa(lp1738
F7.446036339903027
aF4.219233021573649
aa(lp1739
F7.383025770702606
aF4.327970439283693
aa(lp1740
F7.30209892639394
aF4.42412138161631
aa(lp1741
F7.205712242009792
aF4.504767304728643
aa(lp1742
F7.096791417053658
aF4.567460300606051
aa(lp1743
F6.978642609482213
aF4.610297400305435
aa(lp1744
F6.854852081338381
aF4.631978336241889
aa(lp1745
F6.729177342168649
aF4.631845010215335
aa(lp1746
F6.605433094432593
aF4.6099014691736695
aa(lp1747
F6.487375442891726
aF4.566813782372629
aa(lp1748
F6.378587882659543
aF4.503889823661032
aa(lp1749
F6.28237252660559
aF4.423039572575334
aa(lp1750
F6.201649873772178
aF4.326717139255022
aa(lp1751
F6.138870161210457
aF4.217846272941406
aa(lp1752
F6.0959389900420415
aF4.0997316151578875
aa(lp1753
F6.074159483275825
aF3.975958391372491
aa(lp1754
F6.074192731108441
aF3.8502835858791418
aa(lp1755
F6.096037724342736
aF3.7265219031505885
aa(lp1756
F6.139031385020714
aF3.608429977166141
aa(lp1757
F6.201868693341119
aF3.4995923433979637
aa(lp1758
F6.282642299933768
aF3.403312634636328
aa(lp1759
F6.378900421108691
aF3.3225133032710037
aa(lp1760
F6.487721259740815
aF3.259646913835864
aa(lp1761
F6.605801692835611
aF3.2166216984226343
aa(lp1762
F6.729557533773475
aF3.194743634637833
aa(lp1763
F6.85523232589548
aF3.1946768042554257
aa(lp1764
F6.9790113651347525
aF3.2164232358296463
aa(lp1765
F7.0971374906764
aF3.259322843120721
aa(lp1766
F7.206025128962675
aF3.3220734612025127
aa(lp1767
F7.3023691293775315
aF3.402770372080634
aa(lp1768
F7.383245088036977
aF3.4989641200693953
aa(lp1769
F7.446198114479673
aF3.6077348620127814
aa(lp1770
F7.4893173468538645
aF3.7257809955397625
aasg44
((lp1771
F6.792416265141097
aF3.9133745846087495
aF0.7217080243091452
tp1772
sbsg47
(imodels.polygon
Polygon
p1773
(dp1774
g6
(lp1775
(lp1776
F4.034165941517614
aF2.101710023657028
aa(lp1777
F4.023218198871515
aF2.2269070874091956
aa(lp1778
F3.9907072762244384
aF2.348303947952808
aa(lp1779
F3.9376200027307893
aF2.4622157525834956
aa(lp1780
F3.8655677774203667
aF2.565184848282281
aa(lp1781
F3.7767376571585802
aF2.654085734529191
aa(lp1782
F3.6738259712195993
aF2.726219934035431
aa(lp1783
F3.5599564775206014
aF2.7793979017094914
aa(lp1784
F3.4385855447841633
aF2.812005485611039
aa(lp1785
F3.3133972387078905
aF2.8230529225519287
aa(lp1786
F3.188191496671835
aF2.8122048811429816
aa(lp1787
F3.066768785303208
aF2.779790640366734
aa(lp1788
F2.9528147419764443
aF2.7267940947180644
aa(lp1789
F2.8497883018142987
aF2.654823889294394
aa(lp1790
F2.7608167059575477
aF2.5660645913481366
aa(lp1791
F2.6886005779984057
aF2.4632103804289995
aa(lp1792
F2.6353319498660164
aF2.3493832698704744
aa(lp1793
F2.6026277253876504
aF2.2280383419069283
aa(lp1794
F2.5914806011575515
aF2.102858872893003
aa(lp1795
F2.60222893445021
aF1.97764453197057
aa(lp1796
F2.634546472800581
aF1.8561960467754808
aa(lp1797
F2.687452256997236
aF1.74219983701504
aa(lp1798
F2.7593403968952326
aF1.639116117722343
aa(lp1799
F2.8480288162404648
aF1.5500738686758722
aa(lp1800
F2.9508254869161665
aF1.477775858058699
aa(lp1801
F3.064610142152312
aF1.4244166032475523
aa(lp1802
F3.1859289883937385
aF1.3916157589313058
aa(lp1803
F3.311099540964467
aF1.3803689544807938
aa(lp1804
F3.4363224013703157
aF1.3910175728412542
aa(lp1805
F3.55779658337697
aF1.423238388272024
aa(lp1806
F3.67183488728195
aF1.4760533774671847
aa(lp1807
F3.774975820336067
aF1.547859406252626
aa(lp1808
F3.8640886661073326
aF1.6364768907562843
aa(lp1809
F3.9364685135357416
aF1.739215956001447
aa(lp1810
F3.9899183611886033
aF1.85295808376023
aa(lp1811
F4.022815804542524
aF1.9742507713468485
aasg44
((lp1812
F3.3124579179399563
aF2.1017425173296433
aF0.7217080243091437
tp1813
sbsg89
(imodels.pose
Pose
p1814
(dp1815
g92
F2.101710023657028
sg93
F3.312822813907771
sg94
F-0.08536501416020005
sbsg95
F0.7213431276098428
sg92
F2.101710023657028
sg93
F3.312822813907771
sba.(lp0
F-2.3703103085219928
aF3.1606383531930153
a.