(lp0
(imodels.rectangle_obstacle
RectangleObstacle
p1
(dp2
S'geometry'
p3
(imodels.polygon
Polygon
p4
(dp5
S'vertexes'
p6
(lp7
(lp8
F0.1494778590201764
aF1.0178764573386712
aa(lp9
F0.1494778590201764
aF-1.0178764573386712
aa(lp10
F-0.1494778590201764
aF-1.0178764573386712
aa(lp11
F-0.1494778590201764
aF1.0178764573386712
aasS'bounding_circle'
p12
((lp13
F0.0
aF0.0
aF1.028793522890565
tp14
sbsS'width'
p15
F0.2989557180403528
sS'pose'
p16
(imodels.pose
Pose
p17
(dp18
S'y'
p19
F2.8674226587511296
sS'x'
p20
F-1.7992097024258473
sS'theta'
p21
F2.3745451425218205
sbsS'global_geometry'
p22
(imodels.polygon
Polygon
p23
(dp24
g6
(lp25
(lp26
F-2.6132472812632472
aF2.2383289193274063
aa(lp27
F-1.200409140092246
aF3.7039954286226706
aa(lp28
F-0.9851721235884474
aF3.496516398174853
aa(lp29
F-2.3980102647594483
aF2.0308498888795885
aasg12
((lp30
F-1.7992097024258473
aF2.8674226587511296
aF1.028793522890565
tp31
sbsS'height'
p32
F2.0357529146773423
sba(imodels.rectangle_obstacle
RectangleObstacle
p33
(dp34
g3
(imodels.polygon
Polygon
p35
(dp36
g6
(lp37
(lp38
F1.0073745874156184
aF0.05367770682727402
aa(lp39
F1.0073745874156184
aF-0.05367770682727402
aa(lp40
F-1.0073745874156184
aF-0.05367770682727402
aa(lp41
F-1.0073745874156184
aF0.05367770682727402
aasg12
((lp42
F0.0
aF0.0
aF1.0088036754398857
tp43
sbsg15
F2.0147491748312367
sg16
(imodels.pose
Pose
p44
(dp45
g19
F-2.427546855236355
sg20
F2.644762198042993
sg21
F0.8823028154902737
sbsg22
(imodels.polygon
Polygon
p46
(dp47
g6
(lp48
(lp49
F3.2433722664444664
aF-1.615542642445925
aa(lp50
F3.3262725543986296
aF-1.683753544053043
aa(lp51
F2.04615212964152
aF-3.239551068026785
aa(lp52
F1.9632518416873568
aF-3.171340166419667
aasg12
((lp53
F2.6447621980429927
aF-2.427546855236355
aF1.0088036754398861
tp54
sbsg32
F0.10735541365454804
sba(imodels.rectangle_obstacle
RectangleObstacle
p55
(dp56
g3
(imodels.polygon
Polygon
p57
(dp58
g6
(lp59
(lp60
F0.8547555017242827
aF0.29402447838675666
aa(lp61
F0.8547555017242827
aF-0.29402447838675666
aa(lp62
F-0.8547555017242827
aF-0.29402447838675666
aa(lp63
F-0.8547555017242827
aF0.29402447838675666
aasg12
((lp64
F0.0
aF0.0
aF0.9039122532738091
tp65
sbsg15
F1.7095110034485654
sg16
(imodels.pose
Pose
p66
(dp67
g19
F0.37481056816063746
sg20
F-2.0624939630782366
sg21
F-0.18774749856159767
sbsg22
(imodels.polygon
Polygon
p68
(dp69
g6
(lp70
(lp71
F-1.1678803272581644
aF0.5041311165020576
aa(lp72
F-1.2776375785143244
aF-0.07358414325754886
aa(lp73
F-2.957107598898309
aF0.24549001981921734
aa(lp74
F-2.847350347642149
aF0.8232052795788238
aasg12
((lp75
F-2.0624939630782366
aF0.37481056816063746
aF0.9039122532738089
tp76
sbsg32
F0.5880489567735133
sba(imodels.rectangle_obstacle
RectangleObstacle
p77
(dp78
g3
(imodels.polygon
Polygon
p79
(dp80
g6
(lp81
(lp82
F0.7875322990779535
aF0.15439291992892973
aa(lp83
F0.7875322990779535
aF-0.15439291992892973
aa(lp84
F-0.7875322990779535
aF-0.15439291992892973
aa(lp85
F-0.7875322990779535
aF0.15439291992892973
aasg12
((lp86
F0.0
aF0.0
aF0.8025237042076627
tp87
sbsg15
F1.575064598155907
sg16
(imodels.pose
Pose
p88
(dp89
g19
F1.0555098342641283
sg20
F1.759566774657103
sg21
F-0.22011230109115054
sbsg22
(imodels.polygon
Polygon
p90
(dp91
g6
(lp92
(lp93
F2.561808260459299
aF1.0342285214974556
aa(lp94
F2.4943882022564843
aF0.7328927774366942
aa(lp95
F0.957325288854907
aF1.076791147030801
aa(lp96
F1.024745347057722
aF1.3781268910915623
aasg12
((lp97
F1.7595667746571033
aF1.0555098342641283
aF0.8025237042076631
tp98
sbsg32
F0.30878583985785946
sba(imodels.rectangle_obstacle
RectangleObstacle
p99
(dp100
g3
(imodels.polygon
Polygon
p101
(dp102
g6
(lp103
(lp104
F0.5795395449724045
aF0.18525440703954793
aa(lp105
F0.5795395449724045
aF-0.18525440703954793
aa(lp106
F-0.5795395449724045
aF-0.18525440703954793
aa(lp107
F-0.5795395449724045
aF0.18525440703954793
aasg12
((lp108
F0.0
aF0.0
aF0.6084285327911538
tp109
sbsg15
F1.159079089944809
sg16
(imodels.pose
Pose
p110
(dp111
g19
F-1.517153221290366
sg20
F-0.7030546857393724
sg21
F2.5622037574667393
sbsg22
(imodels.polygon
Polygon
p112
(dp113
g6
(lp114
(lp115
F-1.2894410010914379
aF-1.354868383174712
aa(lp116
F-1.0865827314343104
aF-1.0448275733737855
aa(lp117
F-0.11666837038730682
aF-1.67943805940602
aa(lp118
F-0.31952664004443426
aF-1.9894788692069465
aasg12
((lp119
F-0.7030546857393724
aF-1.517153221290366
aF0.6084285327911538
tp120
sbsg32
F0.37050881407909586
sba(imodels.rectangle_obstacle
RectangleObstacle
p121
(dp122
g3
(imodels.polygon
Polygon
p123
(dp124
g6
(lp125
(lp126
F1.102025104767144
aF0.1252820717788426
aa(lp127
F1.102025104767144
aF-0.1252820717788426
aa(lp128
F-1.102025104767144
aF-0.1252820717788426
aa(lp129
F-1.102025104767144
aF0.1252820717788426
aasg12
((lp130
F0.0
aF0.0
aF1.1091234958498688
tp131
sbsg15
F2.204050209534288
sg16
(imodels.pose
Pose
p132
(dp133
g19
F1.211686502364907
sg20
F1.8086925339325803
sg21
F0.7211599010147305
sbsg22
(imodels.polygon
Polygon
p134
(dp135
g6
(lp136
(lp137
F2.5536396416191858
aF2.0333973613631287
aa(lp138
F2.719076183039619
aF1.8452135660999827
aa(lp139
F1.063745426245975
aF0.38997564336668566
aa(lp140
F0.8983088848255418
aF0.5781594386298314
aasg12
((lp141
F1.8086925339325803
aF1.211686502364907
aF1.1091234958498688
tp142
sbsg32
F0.2505641435576852
sba(imodels.rectangle_obstacle
RectangleObstacle
p143
(dp144
g3
(imodels.polygon
Polygon
p145
(dp146
g6
(lp147
(lp148
F0.9353902567036897
aF0.07780693347100906
aa(lp149
F0.9353902567036897
aF-0.07780693347100906
aa(lp150
F-0.9353902567036897
aF-0.07780693347100906
aa(lp151
F-0.9353902567036897
aF0.07780693347100906
aasg12
((lp152
F0.0
aF0.0
aF0.9386207174531982
tp153
sbsg15
F1.8707805134073794
sg16
(imodels.pose
Pose
p154
(dp155
g19
F-2.85736450307275
sg20
F0.06861172623535963
sg21
F2.384750499365788
sbsg22
(imodels.polygon
Polygon
p156
(dp157
g6
(lp158
(lp159
F-0.6648488849029861
aF-2.2716645942961473
aa(lp160
F-0.5579998764892755
aF-2.1585320835591584
aa(lp161
F0.8020723373737053
aF-3.443064411849353
aa(lp162
F0.6952233289599947
aF-3.556196922586342
aasg12
((lp163
F0.0686117262353596
aF-2.85736450307275
aF0.9386207174531982
tp164
sbsg32
F0.15561386694201812
sba(imodels.rectangle_obstacle
RectangleObstacle
p165
(dp166
g3
(imodels.polygon
Polygon
p167
(dp168
g6
(lp169
(lp170
F0.612336779353985
aF0.32463616280185503
aa(lp171
F0.612336779353985
aF-0.32463616280185503
aa(lp172
F-0.612336779353985
aF-0.32463616280185503
aa(lp173
F-0.612336779353985
aF0.32463616280185503
aasg12
((lp174
F0.0
aF0.0
aF0.6930692386394908
tp175
sbsg15
F1.22467355870797
sg16
(imodels.pose
Pose
p176
(dp177
g19
F-3.0697932242793753
sg20
F-2.449481991063342
sg21
F2.876949306452503
sbsg22
(imodels.polygon
Polygon
p178
(dp179
g6
(lp180
(lp181
F-3.1254142597130063
aF-3.222961555687801
aa(lp182
F-2.9555873123793566
aF-2.596293094095721
aa(lp183
F-1.7735497224136778
aF-2.9166248928709497
aa(lp184
F-1.9433766697473276
aF-3.5432933544630294
aasg12
((lp185
F-2.449481991063342
aF-3.0697932242793753
aF0.693069238639491
tp186
sbsg32
F0.6492723256037101
sba(imodels.rectangle_obstacle
RectangleObstacle
p187
(dp188
g3
(imodels.polygon
Polygon
p189
(dp190
g6
(lp191
(lp192
F0.6817420262161237
aF0.12158782268891248
aa(lp193
F0.6817420262161237
aF-0.12158782268891248
aa(lp194
F-0.6817420262161237
aF-0.12158782268891248
aa(lp195
F-0.6817420262161237
aF0.12158782268891248
aasg12
((lp196
F0.0
aF0.0
aF0.6924996671013613
tp197
sbsg15
F1.3634840524322474
sg16
(imodels.pose
Pose
p198
(dp199
g19
F3.7303847169242768
sg20
F-3.1739723789856975
sg21
F-2.673046602644204
sbsg22
(imodels.polygon
Polygon
p200
(dp201
g6
(lp202
(lp203
F-3.7273324312470493
aF3.3140333731089715
aa(lp204
F-3.837148002339841
aF3.5310009625099825
aa(lp205
F-2.6206123267243457
aF4.146736060739582
aa(lp206
F-2.510796755631554
aF3.929768471338571
aasg12
((lp207
F-3.173972378985697
aF3.7303847169242768
aF0.692499667101362
tp208
sbsg32
F0.24317564537782496
sba(imodels.rectangle_obstacle
RectangleObstacle
p209
(dp210
g3
(imodels.polygon
Polygon
p211
(dp212
g6
(lp213
(lp214
F1.2489088650842664
aF0.05055129173463833
aa(lp215
F1.2489088650842664
aF-0.05055129173463833
aa(lp216
F-1.2489088650842664
aF-0.05055129173463833
aa(lp217
F-1.2489088650842664
aF0.05055129173463833
aasg12
((lp218
F0.0
aF0.0
aF1.2499315126766388
tp219
sbsg15
F2.4978177301685327
sg16
(imodels.pose
Pose
p220
(dp221
g19
F3.3590237426465768
sg20
F-2.09131248409812
sg21
F0.963794207949732
sbsg22
(imodels.polygon
Polygon
p222
(dp223
g6
(lp224
(lp225
F-1.4204461690789758
aF4.413664522132533
aa(lp226
F-1.3374043771604267
aF4.355994831834089
aa(lp227
F-2.7621787991172644
aF2.304382963160621
aa(lp228
F-2.8452205910358135
aF2.362052653459065
aasg12
((lp229
F-2.09131248409812
aF3.3590237426465763
aF1.249931512676639
tp230
sbsg32
F0.10110258346927666
sba.(lp0
F-1.8991163501815365
aF1.065672891885474
a.