(lp0
(imodels.rectangle_obstacle
RectangleObstacle
p1
(dp2
S'geometry'
p3
(imodels.polygon
Polygon
p4
(dp5
S'vertexes'
p6
(lp7
(lp8
F0.2866771093354567
aF0.5684501377320159
aa(lp9
F0.2866771093354567
aF-0.5684501377320159
aa(lp10
F-0.2866771093354567
aF-0.5684501377320159
aa(lp11
F-0.2866771093354567
aF0.5684501377320159
aasS'bounding_circle'
p12
((lp13
F0.0
aF0.0
aF0.636646938345329
tp14
sbsS'width'
p15
F0.5733542186709134
sS'pose'
p16
(imodels.pose
Pose
p17
(dp18
S'y'
p19
F-3.868190251249734
sS'x'
p20
F-2.2841121231280725
sS'theta'
p21
F2.3677569267950815
sbsS'global_geometry'
p22
(imodels.polygon
Polygon
p23
(dp24
g6
(lp25
(lp26
F-2.8864342894741766
aF-4.074411811792316
aa(lp27
F-2.0918730819720706
aF-3.261260704135819
aa(lp28
F-1.6817899567819685
aF-3.661968690707153
aa(lp29
F-2.4763511642840745
aF-4.475119798363649
aasg12
((lp30
F-2.2841121231280725
aF-3.868190251249734
aF0.6366469383453291
tp31
sbsS'height'
p32
F1.1369002754640318
sba(imodels.rectangle_obstacle
RectangleObstacle
p33
(dp34
g3
(imodels.polygon
Polygon
p35
(dp36
g6
(lp37
(lp38
F0.061849928676206825
aF0.7143091000729859
aa(lp39
F0.061849928676206825
aF-0.7143091000729859
aa(lp40
F-0.061849928676206825
aF-0.7143091000729859
aa(lp41
F-0.061849928676206825
aF0.7143091000729859
aasg12
((lp42
F0.0
aF0.0
aF0.7169818018083379
tp43
sbsg15
F0.12369985735241365
sg16
(imodels.pose
Pose
p44
(dp45
g19
F-0.42593928255671837
sg20
F-3.5882534180382977
sg21
F0.8682454369008122
sbsg22
(imodels.polygon
Polygon
p46
(dp47
g6
(lp48
(lp49
F-4.093446172683581
aF0.08282705357239445
aa(lp50
F-3.0031299450004143
aF-0.8402983363065022
aa(lp51
F-3.0830606633930144
aF-0.9347056186858311
aa(lp52
F-4.173376891076181
aF-0.01158022880693449
aasg12
((lp53
F-3.5882534180382977
aF-0.4259392825567183
aF0.7169818018083383
tp54
sbsg32
F1.4286182001459717
sba(imodels.rectangle_obstacle
RectangleObstacle
p55
(dp56
g3
(imodels.polygon
Polygon
p57
(dp58
g6
(lp59
(lp60
F0.4683836624486446
aF0.12294364977448406
aa(lp61
F0.4683836624486446
aF-0.12294364977448406
aa(lp62
F-0.4683836624486446
aF-0.12294364977448406
aa(lp63
F-0.4683836624486446
aF0.12294364977448406
aasg12
((lp64
F0.0
aF0.0
aF0.484250344624221
tp65
sbsg15
F0.9367673248972892
sg16
(imodels.pose
Pose
p66
(dp67
g19
F-5.7170701525193115
sg20
F-1.020463061258089
sg21
F2.7559683910917467
sbsg22
(imodels.polygon
Polygon
p68
(dp69
g6
(lp70
(lp71
F-1.500694142487339
aF-5.654808568134858
aa(lp72
F-1.4082066766248502
aF-5.426978296358215
aa(lp73
F-0.5402319800288389
aF-5.779331736903765
aa(lp74
F-0.6327194458913277
aF-6.007162008680408
aasg12
((lp75
F-1.020463061258089
aF-5.7170701525193115
aF0.4842503446242212
tp76
sbsg32
F0.24588729954896812
sba(imodels.rectangle_obstacle
RectangleObstacle
p77
(dp78
g3
(imodels.polygon
Polygon
p79
(dp80
g6
(lp81
(lp82
F0.6215488491624613
aF0.5818777053857144
aa(lp83
F0.6215488491624613
aF-0.5818777053857144
aa(lp84
F-0.6215488491624613
aF-0.5818777053857144
aa(lp85
F-0.6215488491624613
aF0.5818777053857144
aasg12
((lp86
F0.0
aF0.0
aF0.8514133167387766
tp87
sbsg15
F1.2430976983249227
sg16
(imodels.pose
Pose
p88
(dp89
g19
F-3.8826823853274965
sg20
F0.1778057355343431
sg21
F-2.3355483207250485
sbsg22
(imodels.polygon
Polygon
p90
(dp91
g6
(lp92
(lp93
F0.16732761128089074
aF-4.734031223837454
aa(lp94
F-0.6723848635254105
aF-3.9282957736092454
aa(lp95
F0.18828385978779544
aF-3.031333546817539
aa(lp96
F1.0279963345940968
aF-3.8370689970457477
aasg12
((lp97
F0.1778057355343431
aF-3.8826823853274965
aF0.8514133167387768
tp98
sbsg32
F1.1637554107714287
sba(imodels.rectangle_obstacle
RectangleObstacle
p99
(dp100
g3
(imodels.polygon
Polygon
p101
(dp102
g6
(lp103
(lp104
F0.2897244328904058
aF0.6233836440583601
aa(lp105
F0.2897244328904058
aF-0.6233836440583601
aa(lp106
F-0.2897244328904058
aF-0.6233836440583601
aa(lp107
F-0.2897244328904058
aF0.6233836440583601
aasg12
((lp108
F0.0
aF0.0
aF0.6874208424925357
tp109
sbsg15
F0.5794488657808116
sg16
(imodels.pose
Pose
p110
(dp111
g19
F2.1839489344538596
sg20
F2.1470835510947883
sg21
F1.784190313196774
sbsg22
(imodels.polygon
Polygon
p112
(dp113
g6
(lp114
(lp115
F1.4764823416796302
aF2.335082758014553
aa(lp116
F2.6949701711300866
aF2.599120785955673
aa(lp117
F2.8176847605099464
aF2.0328151108931665
aa(lp118
F1.59919693105949
aF1.7687770829520462
aasg12
((lp119
F2.1470835510947883
aF2.183948934453859
aF0.6874208424925358
tp120
sbsg32
F1.2467672881167202
sba(imodels.rectangle_obstacle
RectangleObstacle
p121
(dp122
g3
(imodels.polygon
Polygon
p123
(dp124
g6
(lp125
(lp126
F0.8346631778147799
aF0.1788961003420636
aa(lp127
F0.8346631778147799
aF-0.1788961003420636
aa(lp128
F-0.8346631778147799
aF-0.1788961003420636
aa(lp129
F-0.8346631778147799
aF0.1788961003420636
aasg12
((lp130
F0.0
aF0.0
aF0.8536196079738707
tp131
sbsg15
F1.6693263556295599
sg16
(imodels.pose
Pose
p132
(dp133
g19
F0.16429560223436313
sg20
F-1.4057071638194032
sg21
F-0.7176219066734557
sbsg22
(imodels.polygon
Polygon
p134
(dp135
g6
(lp136
(lp137
F-0.6592543919765994
aF-0.2497994285564682
aa(lp138
F-0.8945367344897068
aF-0.5193499399118271
aa(lp139
F-2.152159935662207
aF0.5783906330251944
aa(lp140
F-1.9168775931490996
aF0.8479411443805533
aasg12
((lp141
F-1.4057071638194032
aF0.16429560223436313
aF0.8536196079738705
tp142
sbsg32
F0.3577922006841272
sba(imodels.rectangle_obstacle
RectangleObstacle
p143
(dp144
g3
(imodels.polygon
Polygon
p145
(dp146
g6
(lp147
(lp148
F0.9356648993029507
aF0.1458817656185339
aa(lp149
F0.9356648993029507
aF-0.1458817656185339
aa(lp150
F-0.9356648993029507
aF-0.1458817656185339
aa(lp151
F-0.9356648993029507
aF0.1458817656185339
aasg12
((lp152
F0.0
aF0.0
aF0.9469690033615576
tp153
sbsg15
F1.8713297986059014
sg16
(imodels.pose
Pose
p154
(dp155
g19
F-0.8351031691694544
sg20
F0.47078375755239943
sg21
F2.71963058843213
sbsg22
(imodels.polygon
Polygon
p156
(dp157
g6
(lp158
(lp159
F-0.44255734191204166
aF-0.5849865376619359
aa(lp160
F-0.32306523552705224
aF-0.31881442290984197
aa(lp161
F1.3841248570168405
aF-1.0852198006769729
aa(lp162
F1.264632750631851
aF-1.3513919154290668
aasg12
((lp163
F0.47078375755239943
aF-0.8351031691694544
aF0.9469690033615578
tp164
sbsg32
F0.2917635312370678
sba(imodels.rectangle_obstacle
RectangleObstacle
p165
(dp166
g3
(imodels.polygon
Polygon
p167
(dp168
g6
(lp169
(lp170
F0.9457136248176896
aF0.06062499733140685
aa(lp171
F0.9457136248176896
aF-0.06062499733140685
aa(lp172
F-0.9457136248176896
aF-0.06062499733140685
aa(lp173
F-0.9457136248176896
aF0.06062499733140685
aasg12
((lp174
F0.0
aF0.0
aF0.9476548160945771
tp175
sbsg15
F1.8914272496353792
sg16
(imodels.pose
Pose
p176
(dp177
g19
F4.459098813647412
sg20
F2.872155950759779
sg21
F1.1668392586117013
sbsg22
(imodels.polygon
Polygon
p178
(dp179
g6
(lp180
(lp181
F3.188132671079142
aF5.352523887553145
aa(lp182
F3.299623597043768
aF5.304865366454789
aa(lp183
F2.5561792304404163
aF3.565673739741678
aa(lp184
F2.44468830447579
aF3.6133322608400347
aasg12
((lp185
F2.8721559507597787
aF4.459098813647412
aF0.9476548160945776
tp186
sbsg32
F0.1212499946628137
sba(imodels.rectangle_obstacle
RectangleObstacle
p187
(dp188
g3
(imodels.polygon
Polygon
p189
(dp190
g6
(lp191
(lp192
F0.7139487805146838
aF0.49938124166840586
aa(lp193
F0.7139487805146838
aF-0.49938124166840586
aa(lp194
F-0.7139487805146838
aF-0.49938124166840586
aa(lp195
F-0.7139487805146838
aF0.49938124166840586
aasg12
((lp196
F0.0
aF0.0
aF0.8712660246610577
tp197
sbsg15
F1.4278975610293676
sg16
(imodels.pose
Pose
p198
(dp199
g19
F2.9453339607847338
sg20
F4.88920183582769
sg21
F0.07516850980651091
sbsg22
(imodels.polygon
Polygon
p200
(dp201
g6
(lp202
(lp203
F5.56363214796003
aF3.496920980035329
aa(lp204
F5.638636955555469
aF2.500978824607271
aa(lp205
F4.214771523695349
aF2.3937469415341384
aa(lp206
F4.13976671609991
aF3.3896890969621967
aasg12
((lp207
F4.88920183582769
aF2.9453339607847338
aF0.871266024661058
tp208
sbsg32
F0.9987624833368117
sba(imodels.rectangle_obstacle
RectangleObstacle
p209
(dp210
g3
(imodels.polygon
Polygon
p211
(dp212
g6
(lp213
(lp214
F0.7800005004849926
aF0.3109038935008664
aa(lp215
F0.7800005004849926
aF-0.3109038935008664
aa(lp216
F-0.7800005004849926
aF-0.3109038935008664
aa(lp217
F-0.7800005004849926
aF0.3109038935008664
aasg12
((lp218
F0.0
aF0.0
aF0.8396797078355752
tp219
sbsg15
F1.5600010009699852
sg16
(imodels.pose
Pose
p220
(dp221
g19
F1.8293379640175456
sg20
F-5.229370259932219
sg21
F-0.21949644644204058
sbsg22
(imodels.polygon
Polygon
p222
(dp223
g6
(lp224
(lp225
F-4.400388495498817
aF1.962946519086894
aa(lp226
F-4.535779790604852
aF1.3560576320692599
aa(lp227
F-6.058352024365622
aF1.6957294089481971
aa(lp228
F-5.922960729259587
aF2.3026182959658312
aasg12
((lp229
F-5.229370259932219
aF1.8293379640175456
aF0.8396797078355756
tp230
sbsg32
F0.6218077870017328
sba(imodels.rectangle_obstacle
RectangleObstacle
p231
(dp232
g3
(imodels.polygon
Polygon
p233
(dp234
g6
(lp235
(lp236
F0.36650478270885833
aF0.345172536566321
aa(lp237
F0.36650478270885833
aF-0.345172536566321
aa(lp238
F-0.36650478270885833
aF-0.345172536566321
aa(lp239
F-0.36650478270885833
aF0.345172536566321
aasg12
((lp240
F0.0
aF0.0
aF0.503457878822147
tp241
sbsg15
F0.7330095654177167
sg16
(imodels.pose
Pose
p242
(dp243
g19
F0.5734649880202278
sg20
F2.6141760676773
sg21
F-0.18521282357785873
sbsg22
(imodels.polygon
Polygon
p244
(dp245
g6
(lp246
(lp247
F3.0379780459536563
aF0.8452401137347463
aa(lp248
F2.9108470510164803
aF0.16670195701487783
aa(lp249
F2.1903740894009434
aF0.30168986230570943
aa(lp250
F2.3175050843381193
aF0.9802280190255779
aasg12
((lp251
F2.6141760676773
aF0.5734649880202278
aF0.503457878822147
tp252
sbsg32
F0.690345073132642
sba(imodels.rectangle_obstacle
RectangleObstacle
p253
(dp254
g3
(imodels.polygon
Polygon
p255
(dp256
g6
(lp257
(lp258
F0.5074228425692234
aF0.1894197186364988
aa(lp259
F0.5074228425692234
aF-0.1894197186364988
aa(lp260
F-0.5074228425692234
aF-0.1894197186364988
aa(lp261
F-0.5074228425692234
aF0.1894197186364988
aasg12
((lp262
F0.0
aF0.0
aF0.5416251203271145
tp263
sbsg15
F1.0148456851384469
sg16
(imodels.pose
Pose
p264
(dp265
g19
F3.1496551238466277
sg20
F4.212244772717815
sg21
F-0.3977265996311714
sbsg22
(imodels.polygon
Polygon
p266
(dp267
g6
(lp268
(lp269
F4.753426864655157
aF3.1277527418829263
aa(lp270
F4.606693486747419
aF2.778484027221698
aa(lp271
F3.6710626807804734
aF3.171557505810329
aa(lp272
F3.817796058688211
aF3.5208262204715575
aasg12
((lp273
F4.212244772717815
aF3.1496551238466277
aF0.5416251203271151
tp274
sbsg32
F0.3788394372729976
sba(imodels.rectangle_obstacle
RectangleObstacle
p275
(dp276
g3
(imodels.polygon
Polygon
p277
(dp278
g6
(lp279
(lp280
F1.205393541281999
aF0.05997950106418091
aa(lp281
F1.205393541281999
aF-0.05997950106418091
aa(lp282
F-1.205393541281999
aF-0.05997950106418091
aa(lp283
F-1.205393541281999
aF0.05997950106418091
aasg12
((lp284
F0.0
aF0.0
aF1.2068848867693498
tp285
sbsg15
F2.410787082563998
sg16
(imodels.pose
Pose
p286
(dp287
g19
F0.7508998005543613
sg20
F-5.598610412638987
sg21
F2.952580206821125
sbsg22
(imodels.polygon
Polygon
p288
(dp289
g6
(lp290
(lp291
F-6.793805703479463
aF0.9184687316395026
aa(lp292
F-6.771266723939231
aF1.0362912956623473
aa(lp293
F-4.403415121798511
aF0.5833308694692201
aa(lp294
F-4.425954101338743
aF0.4655083054463754
aasg12
((lp295
F-5.598610412638987
aF0.7508998005543615
aF1.2068848867693502
tp296
sbsg32
F0.11995900212836182
sba(imodels.rectangle_obstacle
RectangleObstacle
p297
(dp298
g3
(imodels.polygon
Polygon
p299
(dp300
g6
(lp301
(lp302
F0.9107261940048657
aF0.11480040300527228
aa(lp303
F0.9107261940048657
aF-0.11480040300527228
aa(lp304
F-0.9107261940048657
aF-0.11480040300527228
aa(lp305
F-0.9107261940048657
aF0.11480040300527228
aasg12
((lp306
F0.0
aF0.0
aF0.9179331854643676
tp307
sbsg15
F1.8214523880097313
sg16
(imodels.pose
Pose
p308
(dp309
g19
F-5.947523587322888
sg20
F-0.555191849063941
sg21
F-2.803177397677407
sbsg22
(imodels.polygon
Polygon
p310
(dp311
g6
(lp312
(lp313
F-1.3761505604588504
aF-6.358167139764141
aa(lp314
F-1.4523763402868242
aF-6.141588838426474
aa(lp315
F0.26576686233096825
aF-5.536880034881636
aa(lp316
F0.341992642158942
aF-5.753458336219303
aasg12
((lp317
F-0.5551918490639411
aF-5.947523587322888
aF0.9179331854643679
tp318
sbsg32
F0.22960080601054456
sba(imodels.rectangle_obstacle
RectangleObstacle
p319
(dp320
g3
(imodels.polygon
Polygon
p321
(dp322
g6
(lp323
(lp324
F0.32515373169007544
aF0.11142624475419219
aa(lp325
F0.32515373169007544
aF-0.11142624475419219
aa(lp326
F-0.32515373169007544
aF-0.11142624475419219
aa(lp327
F-0.32515373169007544
aF0.11142624475419219
aasg12
((lp328
F0.0
aF0.0
aF0.3437160997858592
tp329
sbsg15
F0.6503074633801509
sg16
(imodels.pose
Pose
p330
(dp331
g19
F4.785352143998724
sg20
F1.777610184352571
sg21
F-1.4160297732625782
sbsg22
(imodels.polygon
Polygon
p332
(dp333
g6
(lp334
(lp335
F1.9378268797682272
aF4.481261092236115
aa(lp336
F1.7176380249820833
aF4.446908504152377
aa(lp337
F1.6173934889369146
aF5.089443195761333
aa(lp338
F1.8375823437230585
aF5.12379578384507
aasg12
((lp339
F1.777610184352571
aF4.785352143998724
aF0.3437160997858595
tp340
sbsg32
F0.22285248950838438
sba(imodels.rectangle_obstacle
RectangleObstacle
p341
(dp342
g3
(imodels.polygon
Polygon
p343
(dp344
g6
(lp345
(lp346
F0.2507205329058621
aF0.15346450036570375
aa(lp347
F0.2507205329058621
aF-0.15346450036570375
aa(lp348
F-0.2507205329058621
aF-0.15346450036570375
aa(lp349
F-0.2507205329058621
aF0.15346450036570375
aasg12
((lp350
F0.0
aF0.0
aF0.2939594164048748
tp351
sbsg15
F0.5014410658117242
sg16
(imodels.pose
Pose
p352
(dp353
g19
F-2.942148156071171
sg20
F-0.4882132300036035
sg21
F0.4801991480602137
sbsg22
(imodels.polygon
Polygon
p354
(dp355
g6
(lp356
(lp357
F-0.3367422690849795
aF-2.6902182322997317
aa(lp358
F-0.1949546340312186
aF-2.962434466267954
aa(lp359
F-0.6396841909222275
aF-3.1940780798426105
aa(lp360
F-0.7814718259759884
aF-2.921861845874388
aasg12
((lp361
F-0.4882132300036035
aF-2.9421481560711706
aF0.2939594164048752
tp362
sbsg32
F0.3069290007314075
sba(imodels.rectangle_obstacle
RectangleObstacle
p363
(dp364
g3
(imodels.polygon
Polygon
p365
(dp366
g6
(lp367
(lp368
F0.6069839303858401
aF0.2743298288772527
aa(lp369
F0.6069839303858401
aF-0.2743298288772527
aa(lp370
F-0.6069839303858401
aF-0.2743298288772527
aa(lp371
F-0.6069839303858401
aF0.2743298288772527
aasg12
((lp372
F0.0
aF0.0
aF0.6660978507385121
tp373
sbsg15
F1.2139678607716802
sg16
(imodels.pose
Pose
p374
(dp375
g19
F3.1818884276528694
sg20
F-0.42739616735281744
sg21
F0.0635570562345853
sbsg22
(imodels.polygon
Polygon
p376
(dp377
g6
(lp378
(lp379
F0.16093835983631494
aF3.494216509764621
aa(lp380
F0.19578608027218575
aF2.946664634206045
aa(lp381
F-1.0157306945419498
aF2.869560345541118
aa(lp382
F-1.0505784149778206
aF3.4171122210996936
aasg12
((lp383
F-0.4273961673528174
aF3.1818884276528694
aF0.666097850738512
tp384
sbsg32
F0.5486596577545054
sba(imodels.rectangle_obstacle
RectangleObstacle
p385
(dp386
g3
(imodels.polygon
Polygon
p387
(dp388
g6
(lp389
(lp390
F0.5403265538924764
aF0.6839500530123789
aa(lp391
F0.5403265538924764
aF-0.6839500530123789
aa(lp392
F-0.5403265538924764
aF-0.6839500530123789
aa(lp393
F-0.5403265538924764
aF0.6839500530123789
aasg12
((lp394
F0.0
aF0.0
aF0.8716309195163714
tp395
sbsg15
F1.0806531077849528
sg16
(imodels.pose
Pose
p396
(dp397
g19
F2.8442538701427384
sg20
F-0.0075131798138791525
sg21
F0.4020436266818281
sbsg22
(imodels.polygon
Polygon
p398
(dp399
g6
(lp400
(lp401
F0.22209994701412392
aF3.6850976557802504
aa(lp402
F0.7573590295648215
aF2.4262694647194016
aa(lp403
F-0.2371263066418822
aF2.0034100845052265
aa(lp404
F-0.7723853891925797
aF3.2622382755660753
aasg12
((lp405
F-0.007513179813879112
aF2.8442538701427384
aF0.8716309195163715
tp406
sbsg32
F1.3679001060247578
sba(imodels.rectangle_obstacle
RectangleObstacle
p407
(dp408
g3
(imodels.polygon
Polygon
p409
(dp410
g6
(lp411
(lp412
F1.1532724244901784
aF0.12020753051530572
aa(lp413
F1.1532724244901784
aF-0.12020753051530572
aa(lp414
F-1.1532724244901784
aF-0.12020753051530572
aa(lp415
F-1.1532724244901784
aF0.12020753051530572
aasg12
((lp416
F0.0
aF0.0
aF1.1595202177978796
tp417
sbsg15
F2.306544848980357
sg16
(imodels.pose
Pose
p418
(dp419
g19
F2.4035051086294015
sg20
F-1.5071945558602302
sg21
F1.3720310884430331
sbsg22
(imodels.polygon
Polygon
p420
(dp421
g6
(lp422
(lp423
F-1.3973112816735518
aF3.557806976225594
aa(lp424
F-1.1616297191390679
aF3.510334851229373
aa(lp425
F-1.6170778300469086
aF1.249203241033209
aa(lp426
F-1.8527593925813926
aF1.29667536602943
aasg12
((lp427
F-1.50719455586023
aF2.4035051086294015
aF1.15952021779788
tp428
sbsg32
F0.24041506103061144
sba(imodels.rectangle_obstacle
RectangleObstacle
p429
(dp430
g3
(imodels.polygon
Polygon
p431
(dp432
g6
(lp433
(lp434
F0.7789279968520858
aF0.37892197623501694
aa(lp435
F0.7789279968520858
aF-0.37892197623501694
aa(lp436
F-0.7789279968520858
aF-0.37892197623501694
aa(lp437
F-0.7789279968520858
aF0.37892197623501694
aasg12
((lp438
F0.0
aF0.0
aF0.8662047612163384
tp439
sbsg15
F1.5578559937041716
sg16
(imodels.pose
Pose
p440
(dp441
g19
F-1.065975758665067
sg20
F-0.739893700552796
sg21
F2.6547066668135857
sbsg22
(imodels.polygon
Polygon
p442
(dp443
g6
(lp444
(lp445
F-1.605594183055047
aF-1.0364230439128885
aa(lp446
F-1.2510171749028038
aF-0.3666450197995209
aa(lp447
F0.12580678194945494
aF-1.0955284734172457
aa(lp448
F-0.2287702262027883
aF-1.7653064975306134
aasg12
((lp449
F-0.7398937005527961
aF-1.065975758665067
aF0.8662047612163385
tp450
sbsg32
F0.7578439524700339
sba(imodels.rectangle_obstacle
RectangleObstacle
p451
(dp452
g3
(imodels.polygon
Polygon
p453
(dp454
g6
(lp455
(lp456
F0.2690498167354176
aF0.16193931135160827
aa(lp457
F0.2690498167354176
aF-0.16193931135160827
aa(lp458
F-0.2690498167354176
aF-0.16193931135160827
aa(lp459
F-0.2690498167354176
aF0.16193931135160827
aasg12
((lp460
F0.0
aF0.0
aF0.31402570666490814
tp461
sbsg15
F0.5380996334708352
sg16
(imodels.pose
Pose
p462
(dp463
g19
F4.701881208271728
sg20
F-1.928296522540653
sg21
F-1.5349038804402766
sbsg22
(imodels.polygon
Polygon
p464
(dp465
g6
(lp466
(lp467
F-1.7568067277722414
aF4.438815827165276
aa(lp468
F-2.0804767516861213
aF4.427193526888621
aa(lp469
F-2.0997863173090647
aF4.96494658937818
aa(lp470
F-1.7761162933951844
aF4.9765688896548355
aasg12
((lp471
F-1.9282965225406532
aF4.701881208271728
aF0.3140257066649082
tp472
sbsg32
F0.32387862270321655
sba(imodels.rectangle_obstacle
RectangleObstacle
p473
(dp474
g3
(imodels.polygon
Polygon
p475
(dp476
g6
(lp477
(lp478
F0.12325399854247206
aF1.0587399660114105
aa(lp479
F0.12325399854247206
aF-1.0587399660114105
aa(lp480
F-0.12325399854247206
aF-1.0587399660114105
aa(lp481
F-0.12325399854247206
aF1.0587399660114105
aasg12
((lp482
F0.0
aF0.0
aF1.0658901743550084
tp483
sbsg15
F0.2465079970849441
sg16
(imodels.pose
Pose
p484
(dp485
g19
F1.1526524254482382
sg20
F1.3413745689653331
sg21
F0.9169547320359754
sbsg22
(imodels.polygon
Polygon
p486
(dp487
g6
(lp488
(lp489
F0.5759645250118888
aF1.8944538331051235
aa(lp490
F2.2567206774788278
aF0.6065174921068962
aa(lp491
F2.1067846129187773
aF0.4108510177913528
aa(lp492
F0.4260284604518385
aF1.69878735878958
aasg12
((lp493
F1.3413745689653331
aF1.1526524254482382
aF1.0658901743550084
tp494
sbsg32
F2.117479932022821
sba(imodels.rectangle_obstacle
RectangleObstacle
p495
(dp496
g3
(imodels.polygon
Polygon
p497
(dp498
g6
(lp499
(lp500
F0.8418211307543896
aF0.06548896602903205
aa(lp501
F0.8418211307543896
aF-0.06548896602903205
aa(lp502
F-0.8418211307543896
aF-0.06548896602903205
aa(lp503
F-0.8418211307543896
aF0.06548896602903205
aasg12
((lp504
F0.0
aF0.0
aF0.8443646255357639
tp505
sbsg15
F1.6836422615087792
sg16
(imodels.pose
Pose
p506
(dp507
g19
F3.234632327747813
sg20
F3.8743002551416343
sg21
F-0.3401442840274993
sbsg22
(imodels.polygon
Polygon
p508
(dp509
g6
(lp510
(lp511
F4.6897391723707305
aF3.0155182179228417
aa(lp512
F4.646041906928916
aF2.892044464926043
aa(lp513
F3.058861337912538
aF3.453746437572784
aa(lp514
F3.102558603354352
aF3.577220190569583
aasg12
((lp515
F3.874300255141634
aF3.2346323277478133
aF0.8443646255357642
tp516
sbsg32
F0.1309779320580641
sba(imodels.rectangle_obstacle
RectangleObstacle
p517
(dp518
g3
(imodels.polygon
Polygon
p519
(dp520
g6
(lp521
(lp522
F1.1834006895977103
aF0.06573984582788932
aa(lp523
F1.1834006895977103
aF-0.06573984582788932
aa(lp524
F-1.1834006895977103
aF-0.06573984582788932
aa(lp525
F-1.1834006895977103
aF0.06573984582788932
aasg12
((lp526
F0.0
aF0.0
aF1.1852252610663556
tp527
sbsg15
F2.3668013791954206
sg16
(imodels.pose
Pose
p528
(dp529
g19
F0.22762874077973
sg20
F-0.926921681784671
sg21
F1.2961133322181944
sbsg22
(imodels.polygon
Polygon
p530
(dp531
g6
(lp532
(lp533
F-0.6692092538731089
aF1.3844965914738958
aa(lp534
F-0.5426585739901927
aF1.3488337993920874
aa(lp535
F-1.1846341096962332
aF-0.9292391099144359
aa(lp536
F-1.3111847895791495
aF-0.8935763178326275
aasg12
((lp537
F-0.926921681784671
aF0.22762874077972994
aF1.1852252610663556
tp538
sbsg32
F0.13147969165577864
sba(imodels.rectangle_obstacle
RectangleObstacle
p539
(dp540
g3
(imodels.polygon
Polygon
p541
(dp542
g6
(lp543
(lp544
F1.1437099547358522
aF0.13276563801771957
aa(lp545
F1.1437099547358522
aF-0.13276563801771957
aa(lp546
F-1.1437099547358522
aF-0.13276563801771957
aa(lp547
F-1.1437099547358522
aF0.13276563801771957
aasg12
((lp548
F0.0
aF0.0
aF1.1513901055681073
tp549
sbsg15
F2.2874199094717045
sg16
(imodels.pose
Pose
p550
(dp551
g19
F0.2978084810562941
sg20
F1.259977181111562
sg21
F1.173958105893556
sbsg22
(imodels.polygon
Polygon
p552
(dp553
g6
(lp554
(lp555
F1.579577785475791
aF1.4039525172876326
aa(lp556
F1.8244740001608173
aF1.301323561403077
aa(lp557
F0.9403765767473331
aF-0.8083355551750443
aa(lp558
F0.6954803620623069
aF-0.7057065992904886
aasg12
((lp559
F1.259977181111562
aF0.2978084810562942
aF1.1513901055681073
tp560
sbsg32
F0.26553127603543913
sba(imodels.rectangle_obstacle
RectangleObstacle
p561
(dp562
g3
(imodels.polygon
Polygon
p563
(dp564
g6
(lp565
(lp566
F0.24960704667527195
aF0.48623715319730954
aa(lp567
F0.24960704667527195
aF-0.48623715319730954
aa(lp568
F-0.24960704667527195
aF-0.48623715319730954
aa(lp569
F-0.24960704667527195
aF0.48623715319730954
aasg12
((lp570
F0.0
aF0.0
aF0.5465622077123292
tp571
sbsg15
F0.4992140933505439
sg16
(imodels.pose
Pose
p572
(dp573
g19
F-0.9242574768683884
sg20
F-1.6959800521875328
sg21
F2.009822977624249
sbsg22
(imodels.polygon
Polygon
p574
(dp575
g6
(lp576
(lp577
F-2.2422029326794064
aF-0.9050010045399517
aa(lp578
F-1.3619524273738648
aF-0.4916424138380835
aa(lp579
F-1.1497571716956594
aF-0.9435139491968252
aa(lp580
F-2.0300076770012008
aF-1.3568725398986934
aasg12
((lp581
F-1.695980052187533
aF-0.9242574768683884
aF0.5465622077123294
tp582
sbsg32
F0.9724743063946191
sba.(lp0
F2.502164652207864
aF-2.719441435347128
a.