(lp0
(imodels.rectangle_obstacle
RectangleObstacle
p1
(dp2
S'geometry'
p3
(imodels.polygon
Polygon
p4
(dp5
S'vertexes'
p6
(lp7
(lp8
F0.1494778590201764
aF1.0178764573386712
aa(lp9
F0.1494778590201764
aF-1.0178764573386712
aa(lp10
F-0.1494778590201764
aF-1.0178764573386712
aa(lp11
F-0.1494778590201764
aF1.0178764573386712
aasS'bounding_circle'
p12
((lp13
F0.0
aF0.0
aF1.028793522890565
tp14
sbsS'width'
p15
F0.2989557180403528
sS'pose'
p16
(imodels.pose
Pose
p17
(dp18
S'y'
p19
F2.8674226587511296
sS'x'
p20
F-1.7992097024258473
sS'theta'
p21
F2.3745451425218205
sbsS'global_geometry'
p22
(imodels.polygon
Polygon
p23
(dp24
g6
(lp25
(lp26
F-2.6132472812632472
aF2.2383289193274063
aa(lp27
F-1.200409140092246
aF3.7039954286226706
aa(lp28
F-0.9851721235884474
aF3.496516398174853
aa(lp29
F-2.3980102647594483
aF2.0308498888795885
aasg12
((lp30
F-1.7992097024258473
aF2.8674226587511296
aF1.028793522890565
tp31
sbsS'height'
p32
F2.0357529146773423
sba(imodels.rectangle_obstacle
RectangleObstacle
p33
(dp34
g3
(imodels.polygon
Polygon
p35
(dp36
g6
(lp37
(lp38
F1.0073745874156184
aF0.05367770682727402
aa(lp39
F1.0073745874156184
aF-0.05367770682727402
aa(lp40
F-1.0073745874156184
aF-0.05367770682727402
aa(lp41
F-1.0073745874156184
aF0.05367770682727402
aasg12
((lp42
F0.0
aF0.0
aF1.0088036754398857
tp43
sbsg15
F2.0147491748312367
sg16
(imodels.pose
Pose
p44
(dp45
g19
F-2.427546855236355
sg20
F2.644762198042993
sg21
F0.8823028154902737
sbsg22
(imodels.polygon
Polygon
p46
(dp47
g6
(lp48
(lp49
F3.2433722664444664
aF-1.615542642445925
aa(lp50
F3.3262725543986296
aF-1.683753544053043
aa(lp51
F2.04615212964152
aF-3.239551068026785
aa(lp52
F1.9632518416873568
aF-3.171340166419667
aasg12
((lp53
F2.6447621980429927
aF-2.427546855236355
aF1.0088036754398861
tp54
sbsg32
F0.10735541365454804
sba(imodels.rectangle_obstacle
RectangleObstacle
p55
(dp56
g3
(imodels.polygon
Polygon
p57
(dp58
g6
(lp59
(lp60
F0.8547555017242827
aF0.29402447838675666
aa(lp61
F0.8547555017242827
aF-0.29402447838675666
aa(lp62
F-0.8547555017242827
aF-0.29402447838675666
aa(lp63
F-0.8547555017242827
aF0.29402447838675666
aasg12
((lp64
F0.0
aF0.0
aF0.9039122532738091
tp65
sbsg15
F1.7095110034485654
sg16
(imodels.pose
Pose
p66
(dp67
g19
F0.37481056816063746
sg20
F-2.0624939630782366
sg21
F-0.18774749856159767
sbsg22
(imodels.polygon
Polygon
p68
(dp69
g6
(lp70
(lp71
F-1.1678803272581644
aF0.5041311165020576
aa(lp72
F-1.2776375785143244
aF-0.07358414325754886
aa(lp73
F-2.957107598898309
aF0.24549001981921734
aa(lp74
F-2.847350347642149
aF0.8232052795788238
aasg12
((lp75
F-2.0624939630782366
aF0.37481056816063746
aF0.9039122532738089
tp76
sbsg32
F0.5880489567735133
sba(imodels.rectangle_obstacle
RectangleObstacle
p77
(dp78
g3
(imodels.polygon
Polygon
p79
(dp80
g6
(lp81
(lp82
F0.7875322990779535
aF0.15439291992892973
aa(lp83
F0.7875322990779535
aF-0.15439291992892973
aa(lp84
F-0.7875322990779535
aF-0.15439291992892973
aa(lp85
F-0.7875322990779535
aF0.15439291992892973
aasg12
((lp86
F0.0
aF0.0
aF0.8025237042076627
tp87
sbsg15
F1.575064598155907
sg16
(imodels.pose
Pose
p88
(dp89
g19
F1.0555098342641283
sg20
F1.759566774657103
sg21
F-0.22011230109115054
sbsg22
(imodels.polygon
Polygon
p90
(dp91
g6
(lp92
(lp93
F2.561808260459299
aF1.0342285214974556
aa(lp94
F2.4943882022564843
aF0.7328927774366942
aa(lp95
F0.957325288854907
aF1.076791147030801
aa(lp96
F1.024745347057722
aF1.3781268910915623
aasg12
((lp97
F1.7595667746571033
aF1.0555098342641283
aF0.8025237042076631
tp98
sbsg32
F0.30878583985785946
sba(imodels.rectangle_obstacle
RectangleObstacle
p99
(dp100
g3
(imodels.polygon
Polygon
p101
(dp102
g6
(lp103
(lp104
F0.5795395449724045
aF0.18525440703954793
aa(lp105
F0.5795395449724045
aF-0.18525440703954793
aa(lp106
F-0.5795395449724045
aF-0.18525440703954793
aa(lp107
F-0.5795395449724045
aF0.18525440703954793
aasg12
((lp108
F0.0
aF0.0
aF0.6084285327911538
tp109
sbsg15
F1.159079089944809
sg16
(imodels.pose
Pose
p110
(dp111
g19
F-1.517153221290366
sg20
F-0.7030546857393724
sg21
F2.5622037574667393
sbsg22
(imodels.polygon
Polygon
p112
(dp113
g6
(lp114
(lp115
F-1.2894410010914379
aF-1.354868383174712
aa(lp116
F-1.0865827314343104
aF-1.0448275733737855
aa(lp117
F-0.11666837038730682
aF-1.67943805940602
aa(lp118
F-0.31952664004443426
aF-1.9894788692069465
aasg12
((lp119
F-0.7030546857393724
aF-1.517153221290366
aF0.6084285327911538
tp120
sbsg32
F0.37050881407909586
sba(imodels.rectangle_obstacle
RectangleObstacle
p121
(dp122
g3
(imodels.polygon
Polygon
p123
(dp124
g6
(lp125
(lp126
F1.102025104767144
aF0.1252820717788426
aa(lp127
F1.102025104767144
aF-0.1252820717788426
aa(lp128
F-1.102025104767144
aF-0.1252820717788426
aa(lp129
F-1.102025104767144
aF0.1252820717788426
aasg12
((lp130
F0.0
aF0.0
aF1.1091234958498688
tp131
sbsg15
F2.204050209534288
sg16
(imodels.pose
Pose
p132
(dp133
g19
F1.211686502364907
sg20
F1.8086925339325803
sg21
F0.7211599010147305
sbsg22
(imodels.polygon
Polygon
p134
(dp135
g6
(lp136
(lp137
F2.5536396416191858
aF2.0333973613631287
aa(lp138
F2.719076183039619
aF1.8452135660999827
aa(lp139
F1.063745426245975
aF0.38997564336668566
aa(lp140
F0.8983088848255418
aF0.5781594386298314
aasg12
((lp141
F1.8086925339325803
aF1.211686502364907
aF1.1091234958498688
tp142
sbsg32
F0.2505641435576852
sba(imodels.rectangle_obstacle
RectangleObstacle
p143
(dp144
g3
(imodels.polygon
Polygon
p145
(dp146
g6
(lp147
(lp148
F0.9353902567036897
aF0.07780693347100906
aa(lp149
F0.9353902567036897
aF-0.07780693347100906
aa(lp150
F-0.9353902567036897
aF-0.07780693347100906
aa(lp151
F-0.9353902567036897
aF0.07780693347100906
aasg12
((lp152
F0.0
aF0.0
aF0.9386207174531982
tp153
sbsg15
F1.8707805134073794
sg16
(imodels.pose
Pose
p154
(dp155
g19
F-2.85736450307275
sg20
F0.06861172623535963
sg21
F2.384750499365788
sbsg22
(imodels.polygon
Polygon
p156
(dp157
g6
(lp158
(lp159
F-0.6648488849029861
aF-2.2716645942961473
aa(lp160
F-0.5579998764892755
aF-2.1585320835591584
aa(lp161
F0.8020723373737053
aF-3.443064411849353
aa(lp162
F0.6952233289599947
aF-3.556196922586342
aasg12
((lp163
F0.0686117262353596
aF-2.85736450307275
aF0.9386207174531982
tp164
sbsg32
F0.15561386694201812
sba(imodels.rectangle_obstacle
RectangleObstacle
p165
(dp166
g3
(imodels.polygon
Polygon
p167
(dp168
g6
(lp169
(lp170
F0.612336779353985
aF0.32463616280185503
aa(lp171
F0.612336779353985
aF-0.32463616280185503
aa(lp172
F-0.612336779353985
aF-0.32463616280185503
aa(lp173
F-0.612336779353985
aF0.32463616280185503
aasg12
((lp174
F0.0
aF0.0
aF0.6930692386394908
tp175
sbsg15
F1.22467355870797
sg16
(imodels.pose
Pose
p176
(dp177
g19
F-3.0697932242793753
sg20
F-2.449481991063342
sg21
F2.876949306452503
sbsg22
(imodels.polygon
Polygon
p178
(dp179
g6
(lp180
(lp181
F-3.1254142597130063
aF-3.222961555687801
aa(lp182
F-2.9555873123793566
aF-2.596293094095721
aa(lp183
F-1.7735497224136778
aF-2.9166248928709497
aa(lp184
F-1.9433766697473276
aF-3.5432933544630294
aasg12
((lp185
F-2.449481991063342
aF-3.0697932242793753
aF0.693069238639491
tp186
sbsg32
F0.6492723256037101
sba(imodels.rectangle_obstacle
RectangleObstacle
p187
(dp188
g3
(imodels.polygon
Polygon
p189
(dp190
g6
(lp191
(lp192
F0.6817420262161237
aF0.12158782268891248
aa(lp193
F0.6817420262161237
aF-0.12158782268891248
aa(lp194
F-0.6817420262161237
aF-0.12158782268891248
aa(lp195
F-0.6817420262161237
aF0.12158782268891248
aasg12
((lp196
F0.0
aF0.0
aF0.6924996671013613
tp197
sbsg15
F1.3634840524322474
sg16
(imodels.pose
Pose
p198
(dp199
g19
F3.7303847169242768
sg20
F-3.1739723789856975
sg21
F-2.673046602644204
sbsg22
(imodels.polygon
Polygon
p200
(dp201
g6
(lp202
(lp203
F-3.7273324312470493
aF3.3140333731089715
aa(lp204
F-3.837148002339841
aF3.5310009625099825
aa(lp205
F-2.6206123267243457
aF4.146736060739582
aa(lp206
F-2.510796755631554
aF3.929768471338571
aasg12
((lp207
F-3.173972378985697
aF3.7303847169242768
aF0.692499667101362
tp208
sbsg32
F0.24317564537782496
sba(imodels.rectangle_obstacle
RectangleObstacle
p209
(dp210
g3
(imodels.polygon
Polygon
p211
(dp212
g6
(lp213
(lp214
F1.2489088650842664
aF0.05055129173463833
aa(lp215
F1.2489088650842664
aF-0.05055129173463833
aa(lp216
F-1.2489088650842664
aF-0.05055129173463833
aa(lp217
F-1.2489088650842664
aF0.05055129173463833
aasg12
((lp218
F0.0
aF0.0
aF1.2499315126766388
tp219
sbsg15
F2.4978177301685327
sg16
(imodels.pose
Pose
p220
(dp221
g19
F3.3590237426465768
sg20
F-2.09131248409812
sg21
F0.963794207949732
sbsg22
(imodels.polygon
Polygon
p222
(dp223
g6
(lp224
(lp225
F-1.4204461690789758
aF4.413664522132533
aa(lp226
F-1.3374043771604267
aF4.355994831834089
aa(lp227
F-2.7621787991172644
aF2.304382963160621
aa(lp228
F-2.8452205910358135
aF2.362052653459065
aasg12
((lp229
F-2.09131248409812
aF3.3590237426465763
aF1.249931512676639
tp230
sbsg32
F0.10110258346927666
sba(imodels.circular_obstacle
CircularObstacle
p231
(dp232
g22
(imodels.polygon
Polygon
p233
(dp234
g6
(lp235
(lp236
F-3.563038072463229
aF0.486535352651733
aa(lp237
F-3.6401614156182442
aF0.5270376130953818
aa(lp238
F-3.7231438810248383
aF0.5535395676552776
aa(lp239
F-3.809466637794803
aF0.5652367820281452
aa(lp240
F-3.89650946459533
aF0.5617742016283689
aa(lp241
F-3.981630283251615
aF0.5432569288341568
aa(lp242
F-4.062245355787081
aF0.5102470327338511
aa(lp243
F-4.135907710618484
aF0.4637464882086102
aa(lp244
F-4.20038141737501
aF0.40516676221467296
aa(lp245
F-4.2537094558204
aF0.3362859704362787
aa(lp246
F-4.2942731188002465
aF0.2591949047664568
aa(lp247
F-4.320841146110942
aF0.17623356988526373
aa(lp248
F-4.332607097891955
aF0.08992015528974295
aa(lp249
F-4.329213833118012
aF0.0028745987424654285
aa(lp250
F-4.310764350176573
aF-0.08226093872365392
aa(lp251
F-4.277818660478202
aF-0.1629022723606297
aa(lp252
F-4.231376789997531
aF-0.23660163346171337
aa(lp253
F-4.172848424712191
aF-0.301121968376197
aa(lp254
F-4.104010121315148
aF-0.3545048415273129
aa(lp255
F-4.026951382016764
aF-0.3951298813204651
aa(lp256
F-3.9440112302697683
aF-0.4217639645342086
aa(lp257
F-3.857707212583164
aF-0.4335986462621504
aa(lp258
F-3.7706589814878857
aF-0.4302746992658324
aa(lp259
F-3.68550877919947
aF-0.41189301787665444
aa(lp260
F-3.604841235598583
aF-0.37901155547227683
aa(lp261
F-3.53110491496326
aF-0.33262838848665366
aa(lp262
F-3.4665379928055087
aF-0.27415142102487233
aa(lp263
F-3.4131003188006863
aF-0.2053556496620499
aa(lp264
F-3.3724139279560417
aF-0.12832928560085177
aa(lp265
F-3.3457138057288898
aF-0.04541036958341649
aa(lp266
F-3.3338104015588215
aF0.04088419646575869
aa(lp267
F-3.337065028669678
aF0.1279350469085927
aa(lp268
F-3.3553788968501044
aF0.21309986002246817
aa(lp269
F-3.388196111109158
aF0.2937935624330452
aa(lp270
F-3.4345205451864826
aF0.3675667958437272
aa(lp271
F-3.492946077742335
aF0.4321802643005156
aasg12
((lp272
F-3.833344835541012
aF0.06559919779459923
aF0.5002529286585912
tp273
sbsg3
(imodels.polygon
Polygon
p274
(dp275
g6
(lp276
(lp277
F-1.3986212989562803
aF1.0799403390623599
aa(lp278
F-1.4062097421167317
aF1.1667208592892633
aa(lp279
F-1.4287447337196881
aF1.2508672633354616
aa(lp280
F-1.4655422517535488
aF1.329825390383911
aa(lp281
F-1.5154853527221308
aF1.4011985633979602
aa(lp282
F-1.5770580750936074
aF1.4628203373112165
aa(lp283
F-1.6483914544521774
aF1.512820258808532
aa(lp284
F-1.7273202536190193
aF1.5496806416406694
aa(lp285
F-1.8114486857693322
aF1.5722826341276515
aa(lp286
F-1.8982231356009138
aF1.5799401805282771
aa(lp287
F-1.9850096711924583
aF1.5724208454201074
aa(lp288
F-2.06917399377425
aF1.5499528689914337
aa(lp289
F-2.14816139863409
aF1.5132182390904927
aa(lp290
F-2.2195743200432965
aF1.4633319903213788
aa(lp291
F-2.281245106421727
aF1.4018083585371823
aa(lp292
F-2.3313018167410093
aF1.3305148180691788
aa(lp293
F-2.368225040996915
aF1.2516153968355637
aa(lp294
F-2.3908940200351787
aF1.1675049899300316
aa(lp295
F-2.39862066482005
aF1.080736665520603
aa(lp296
F-2.3911704425324456
aF0.9939441695989126
aa(lp297
F-2.3687694955258145
aF0.9097619818531817
aa(lp298
F-2.3320977770525566
aF0.8307453492707343
aa(lp299
F-2.282268412117594
aF0.7592927247518988
aa(lp300
F-2.2207939099350478
aF0.6975729650159804
aa(lp301
F-2.1495402535674346
aF0.6474594976175099
aa(lp302
F-2.0706702603000355
aF0.6104734553521933
aa(lp303
F-1.9865779319767494
aF0.5877375041378721
aa(lp304
F-1.8998157880124207
aF0.5799417658685009
aa(lp305
F-1.813017386798859
aF0.5873228706110832
aa(lp306
F-1.728817387272173
aF0.6096567739904174
aa(lp307
F-1.6497715770744352
aF0.6462655577811233
aa(lp308
F-1.578279294756676
aF0.6960380072833243
aa(lp309
F-1.5165106008020117
aF0.7574633408810052
aa(lp310
F-1.4663404081031235
aF0.8286770679636952
aa(lp311
F-1.4292915712825893
aF0.9075175832505501
aa(lp312
F-1.4064886623099029
aF0.9915917796655902
aasg12
((lp313
F-1.8988742271078405
aF1.079962862097079
aF0.5002529286585908
tp314
sbsg16
(imodels.pose
Pose
p315
(dp316
g19
F1.0799403390623599
sg20
F-1.8986212989562803
sg21
F1.0
sbsS'radius'
p317
F0.5
sg19
F1.0799403390623599
sg20
F-1.8986212989562803
sba.(lp0
F-1.8991163501815365
aF1.065672891885474
a.