(lp0
(imodels.circular_obstacle
CircularObstacle
p1
(dp2
S'global_geometry'
p3
(imodels.polygon
Polygon
p4
(dp5
S'vertexes'
p6
(lp7
(lp8
F-0.030000000000000027
aF0.0
aa(lp9
F-0.033794221580225714
aF0.043390260113451685
aa(lp10
F-0.045061717381704
aF0.08546346213655086
aa(lp11
F-0.06346047639863431
aF0.12494252566077561
aa(lp12
F-0.08843202688292531
aF0.1606291121678002
aa(lp13
F-0.11921838806866358
aF0.19143999912442836
aa(lp14
F-0.15488507774794863
aF0.21643995987308612
aa(lp15
F-0.1943494773313696
aF0.23487015128915473
aa(lp16
F-0.236413693406526
aF0.24617114753264582
aa(lp17
F-0.2798009183223168
aF0.24999992073295865
aa(lp18
F-0.32319418611808903
aF0.24624025317887382
aa(lp19
F-0.365276347408985
aF0.23500626496453686
aa(lp20
F-0.4047700498389051
aF0.21663895001406638
aa(lp21
F-0.4404765105435082
aF0.19169582562950951
aa(lp22
F-0.4713119037327234
aF0.16093400973741123
aa(lp23
F-0.49634025889236455
aF0.12528723950340948
aa(lp24
F-0.5148018710203175
aF0.08583752888660187
aa(lp25
F-0.5261363605394491
aF0.043782325433835825
aa(lp26
F-0.5299996829318849
aF0.00039816322912159603
aa(lp27
F-0.5262745717880828
aF-0.04299808473172361
aa(lp28
F-0.5150740982847671
aF-0.0850891786045891
aa(lp29
F-0.49673823904813824
aF-0.1245974948958128
aa(lp30
F-0.47182355658065683
aF-0.16032380715523056
aa(lp31
F-0.4410863054893837
aF-0.19118368702318972
aa(lp32
F-0.4054594773055772
aF-0.21624042072242497
aa(lp33
F-0.36602448067187765
aF-0.23473344185508324
aa(lp34
F-0.32397831651023457
aF-0.24610141746224387
aa(lp35
F-0.28059724452807017
aF-0.2499992865969295
aa(lp36
F-0.23719804392128946
aF-0.24630873422563831
aa(lp37
F-0.19509804415794643
aF-0.23514178253597123
aa(lp38
F-0.15557513905907752
aF-0.2168373906406183
aa(lp39
F-0.11982899790019785
aF-0.19195116588951774
aa(lp40
F-0.08894465092286571
aF-0.1612384990906773
aa(lp41
F-0.06385955457342157
aF-0.12563163554933232
aa(lp42
F-0.04533513616315449
aF-0.08621137790590487
aa(lp43
F-0.03393368167681127
aF-0.04417427969838483
aasS'bounding_circle'
p44
((lp45
F-0.2801264640757804
aF1.1261517359601597e-05
aF0.2501264643292957
tp46
sbsS'geometry'
p47
(imodels.polygon
Polygon
p48
(dp49
g6
g7
sg44
((lp50
F-0.2801264640757804
aF1.1261517359601597e-05
aF0.2501264643292957
tp51
sbsS'pose'
p52
(imodels.pose
Pose
p53
(dp54
S'y'
p55
F0.0
sS'x'
p56
F-0.28
sS'theta'
p57
F1.0
sbsS'radius'
p58
F0.25
sg55
F0.0
sg56
F-0.28
sba.(lp0
F2.502164652207864
aF-2.719441435347128
a.