(lp0
(imodels.rectangle_obstacle
RectangleObstacle
p1
(dp2
S'geometry'
p3
(imodels.polygon
Polygon
p4
(dp5
S'vertexes'
p6
(lp7
(lp8
F0.37241215817630047
aF0.054976345400783
aa(lp9
F0.37241215817630047
aF-0.054976345400783
aa(lp10
F-0.37241215817630047
aF-0.054976345400783
aa(lp11
F-0.37241215817630047
aF0.054976345400783
aasS'bounding_circle'
p12
((lp13
F0.0
aF0.0
aF0.37644815594070324
tp14
sbsS'width'
p15
F0.7448243163526009
sS'pose'
p16
(imodels.pose
Pose
p17
(dp18
S'y'
p19
F4.396617650045182
sS'x'
p20
F-1.9620863910437516
sS'theta'
p21
F-2.6579159348007955
sbsS'global_geometry'
p22
(imodels.polygon
Polygon
p23
(dp24
g6
(lp25
(lp26
F-2.266213509871038
aF4.174762044515437
aa(lp27
F-2.3173456098958702
aF4.272102183006993
aa(lp28
F-1.6579592722164653
aF4.618473255574927
aa(lp29
F-1.6068271721916327
aF4.521133117083371
aasg12
((lp30
F-1.9620863910437516
aF4.396617650045181
aF0.37644815594070397
tp31
sbsS'height'
p32
F0.109952690801566
sba(imodels.rectangle_obstacle
RectangleObstacle
p33
(dp34
g3
(imodels.polygon
Polygon
p35
(dp36
g6
(lp37
(lp38
F0.6130655888485665
aF0.45086139498032785
aa(lp39
F0.6130655888485665
aF-0.45086139498032785
aa(lp40
F-0.6130655888485665
aF-0.45086139498032785
aa(lp41
F-0.6130655888485665
aF0.45086139498032785
aasg12
((lp42
F0.0
aF0.0
aF0.7610028999378694
tp43
sbsg15
F1.226131177697133
sg16
(imodels.pose
Pose
p44
(dp45
g19
F1.775831644101974
sg20
F-2.752924204662439
sg21
F0.8180431698977078
sbsg22
(imodels.polygon
Polygon
p46
(dp47
g6
(lp48
(lp49
F-2.662844431685369
aF2.5314843740078787
aa(lp50
F-2.0047586275447338
aF1.915021022037137
aa(lp51
F-2.8430039776395093
aF1.020178914196069
aa(lp52
F-3.5010897817801445
aF1.6366422661668107
aasg12
((lp53
F-2.752924204662439
aF1.775831644101974
aF0.7610028999378694
tp54
sbsg32
F0.9017227899606557
sba(imodels.rectangle_obstacle
RectangleObstacle
p55
(dp56
g3
(imodels.polygon
Polygon
p57
(dp58
g6
(lp59
(lp60
F1.0086352506461642
aF0.06177029072418283
aa(lp61
F1.0086352506461642
aF-0.06177029072418283
aa(lp62
F-1.0086352506461642
aF-0.06177029072418283
aa(lp63
F-1.0086352506461642
aF0.06177029072418283
aasg12
((lp64
F0.0
aF0.0
aF1.0105249317370655
tp65
sbsg15
F2.0172705012923284
sg16
(imodels.pose
Pose
p66
(dp67
g19
F-0.5556426783255666
sg20
F-1.2297745066661483
sg21
F0.48757289350312805
sbsg22
(imodels.polygon
Polygon
p68
(dp69
g6
(lp70
(lp71
F-0.36761131262343094
aF-0.028541867758687944
aa(lp72
F-0.3097346518540657
aF-0.1376865763010085
aa(lp73
F-2.0919377007088658
aF-1.0827434888924452
aa(lp74
F-2.149814361478231
aF-0.9735987803501247
aasg12
((lp75
F-1.2297745066661485
aF-0.5556426783255666
aF1.0105249317370657
tp76
sbsg32
F0.12354058144836566
sba(imodels.rectangle_obstacle
RectangleObstacle
p77
(dp78
g3
(imodels.polygon
Polygon
p79
(dp80
g6
(lp81
(lp82
F0.6841391930926247
aF0.07518664196775408
aa(lp83
F0.6841391930926247
aF-0.07518664196775408
aa(lp84
F-0.6841391930926247
aF-0.07518664196775408
aa(lp85
F-0.6841391930926247
aF0.07518664196775408
aasg12
((lp86
F0.0
aF0.0
aF0.6882582848435715
tp87
sbsg15
F1.3682783861852494
sg16
(imodels.pose
Pose
p88
(dp89
g19
F3.847553412664864
sg20
F1.4697385785439727
sg21
F1.8097889756375585
sbsg22
(imodels.polygon
Polygon
p90
(dp91
g6
(lp92
(lp93
F1.2347367864174983
aF4.49444878624019
aa(lp94
F1.3808360002770785
aF4.53004575564998
aa(lp95
F1.7047403706704471
aF3.2006580390895385
aa(lp96
F1.558641156810867
aF3.165061069679748
aasg12
((lp97
F1.4697385785439727
aF3.8475534126648645
aF0.6882582848435719
tp98
sbsg32
F0.15037328393550817
sba(imodels.rectangle_obstacle
RectangleObstacle
p99
(dp100
g3
(imodels.polygon
Polygon
p101
(dp102
g6
(lp103
(lp104
F1.1975717238503714
aF0.07480700389832125
aa(lp105
F1.1975717238503714
aF-0.07480700389832125
aa(lp106
F-1.1975717238503714
aF-0.07480700389832125
aa(lp107
F-1.1975717238503714
aF0.07480700389832125
aasg12
((lp108
F0.0
aF0.0
aF1.1999058803081988
tp109
sbsg15
F2.3951434477007427
sg16
(imodels.pose
Pose
p110
(dp111
g19
F-3.941015559723204
sg20
F4.380657337631805
sg21
F-1.0644132650730245
sbsg22
(imodels.polygon
Polygon
p112
(dp113
g6
(lp114
(lp115
F5.026919520177786
aF-4.952014725404907
aa(lp116
F4.896081396790597
aF-5.024580122099838
aa(lp117
F3.734395155085825
aF-2.930016394041501
aa(lp118
F3.865233278473013
aF-2.8574509973465694
aasg12
((lp119
F4.380657337631805
aF-3.9410155597232044
aF1.1999058803081994
tp120
sbsg32
F0.1496140077966425
sba(imodels.rectangle_obstacle
RectangleObstacle
p121
(dp122
g3
(imodels.polygon
Polygon
p123
(dp124
g6
(lp125
(lp126
F0.8587251035546986
aF0.17469646099137276
aa(lp127
F0.8587251035546986
aF-0.17469646099137276
aa(lp128
F-0.8587251035546986
aF-0.17469646099137276
aa(lp129
F-0.8587251035546986
aF0.17469646099137276
aasg12
((lp130
F0.0
aF0.0
aF0.8763148161237136
tp131
sbsg15
F1.717450207109397
sg16
(imodels.pose
Pose
p132
(dp133
g19
F0.7413360235686889
sg20
F-0.3407513627690336
sg21
F-0.42491233135507
sbsg22
(imodels.polygon
Polygon
p134
(dp135
g6
(lp136
(lp137
F0.5136285335405129
aF0.5464959616203651
aa(lp138
F0.3695944772154294
aF0.22817284818028905
aa(lp139
F-1.19513125907858
aF0.9361760855170127
aa(lp140
F-1.0510972027534966
aF1.2544991989570886
aasg12
((lp141
F-0.3407513627690336
aF0.7413360235686889
aF0.8763148161237136
tp142
sbsg32
F0.3493929219827455
sba(imodels.rectangle_obstacle
RectangleObstacle
p143
(dp144
g3
(imodels.polygon
Polygon
p145
(dp146
g6
(lp147
(lp148
F0.11856647381562654
aF0.7816318031606707
aa(lp149
F0.11856647381562654
aF-0.7816318031606707
aa(lp150
F-0.11856647381562654
aF-0.7816318031606707
aa(lp151
F-0.11856647381562654
aF0.7816318031606707
aasg12
((lp152
F0.0
aF0.0
aF0.7905733896516332
tp153
sbsg15
F0.2371329476312531
sg16
(imodels.pose
Pose
p154
(dp155
g19
F1.3381312723496614
sg20
F3.604055005554141
sg21
F-2.4977656309960987
sbsg22
(imodels.polygon
Polygon
p156
(dp157
g6
(lp158
(lp159
F3.9784078696674747
aF0.6418079153125612
aa(lp160
F3.0400421643503686
aF1.892113040445437
aa(lp161
F3.229702141440807
aF2.0344546293867616
aa(lp162
F4.168067846757913
aF0.7841495042538859
aasg12
((lp163
F3.604055005554141
aF1.3381312723496614
aF0.7905733896516335
tp164
sbsg32
F1.5632636063213414
sba(imodels.rectangle_obstacle
RectangleObstacle
p165
(dp166
g3
(imodels.polygon
Polygon
p167
(dp168
g6
(lp169
(lp170
F0.9140172783168397
aF0.14735392170644665
aa(lp171
F0.9140172783168397
aF-0.14735392170644665
aa(lp172
F-0.9140172783168397
aF-0.14735392170644665
aa(lp173
F-0.9140172783168397
aF0.14735392170644665
aasg12
((lp174
F0.0
aF0.0
aF0.9258189689696321
tp175
sbsg15
F1.8280345566336793
sg16
(imodels.pose
Pose
p176
(dp177
g19
F0.8220666189883804
sg20
F-0.3526082966448957
sg21
F2.9584569247467885
sbsg22
(imodels.polygon
Polygon
p178
(dp179
g6
(lp180
(lp181
F-1.2781760683080035
aF0.8436319467758622
aa(lp182
F-1.224505716246978
aF1.1334115290081581
aa(lp183
F0.5729594750182122
aF0.8005012912008986
aa(lp184
F0.5192891229571864
aF0.5107217089686027
aasg12
((lp185
F-0.3526082966448957
aF0.8220666189883804
aF0.9258189689696322
tp186
sbsg32
F0.2947078434128933
sba(imodels.rectangle_obstacle
RectangleObstacle
p187
(dp188
g3
(imodels.polygon
Polygon
p189
(dp190
g6
(lp191
(lp192
F0.29334226074284064
aF0.5575931137377742
aa(lp193
F0.29334226074284064
aF-0.5575931137377742
aa(lp194
F-0.29334226074284064
aF-0.5575931137377742
aa(lp195
F-0.29334226074284064
aF0.5575931137377742
aasg12
((lp196
F0.0
aF0.0
aF0.6300474287111305
tp197
sbsg15
F0.5866845214856813
sg16
(imodels.pose
Pose
p198
(dp199
g19
F3.1138250422592466
sg20
F-1.7430321067620815
sg21
F0.64607689348004
sbsg22
(imodels.polygon
Polygon
p200
(dp201
g6
(lp202
(lp203
F-1.8445161770416958
aF3.7356455516548355
aa(lp204
F-1.1731086790768042
aF2.8452230150871283
aa(lp205
F-1.6415480364824673
aF2.4920045328636578
aa(lp206
F-2.312955534447359
aF3.382427069431365
aasg12
((lp207
F-1.7430321067620815
aF3.113825042259247
aF0.6300474287111311
tp208
sbsg32
F1.1151862274755484
sba(imodels.rectangle_obstacle
RectangleObstacle
p209
(dp210
g3
(imodels.polygon
Polygon
p211
(dp212
g6
(lp213
(lp214
F0.5519275611652347
aF0.7304422633969754
aa(lp215
F0.5519275611652347
aF-0.7304422633969754
aa(lp216
F-0.5519275611652347
aF-0.7304422633969754
aa(lp217
F-0.5519275611652347
aF0.7304422633969754
aasg12
((lp218
F0.0
aF0.0
aF0.9155162111783167
tp219
sbsg15
F1.1038551223304693
sg16
(imodels.pose
Pose
p220
(dp221
g19
F-1.7505465173613968
sg20
F-0.32969470987069394
sg21
F0.1662008179902057
sbsg22
(imodels.polygon
Polygon
p222
(dp223
g6
(lp224
(lp225
F0.09378554108894682
aF-0.9388603649739977
aa(lp226
F0.33546948723869874
aF-2.3796144976418407
aa(lp227
F-0.7531749608303346
aF-2.562232669748796
aa(lp228
F-0.9948589069800866
aF-1.1214785370809526
aasg12
((lp229
F-0.32969470987069394
aF-1.7505465173613968
aF0.9155162111783167
tp230
sbsg32
F1.4608845267939508
sba(imodels.rectangle_obstacle
RectangleObstacle
p231
(dp232
g3
(imodels.polygon
Polygon
p233
(dp234
g6
(lp235
(lp236
F0.16838036751021587
aF0.7669316045831617
aa(lp237
F0.16838036751021587
aF-0.7669316045831617
aa(lp238
F-0.16838036751021587
aF-0.7669316045831617
aa(lp239
F-0.16838036751021587
aF0.7669316045831617
aasg12
((lp240
F0.0
aF0.0
aF0.7851980860084787
tp241
sbsg15
F0.33676073502043175
sg16
(imodels.pose
Pose
p242
(dp243
g19
F-0.15380934319476988
sg20
F-0.7341899567938508
sg21
F2.4394265067098244
sbsg22
(imodels.polygon
Polygon
p244
(dp245
g6
(lp246
(lp247
F-1.3580794600907227
aF-0.6305670614829597
aa(lp248
F-0.36739872720030514
aF0.5404530194352615
aa(lp249
F-0.11030045349697892
aF0.3229483750934199
aa(lp250
F-1.1009811863873964
aF-0.8480717058248013
aasg12
((lp251
F-0.7341899567938508
aF-0.1538093431947699
aF0.7851980860084788
tp252
sbsg32
F1.5338632091663233
sba(imodels.rectangle_obstacle
RectangleObstacle
p253
(dp254
g3
(imodels.polygon
Polygon
p255
(dp256
g6
(lp257
(lp258
F1.1446923111736997
aF0.05150386678080752
aa(lp259
F1.1446923111736997
aF-0.05150386678080752
aa(lp260
F-1.1446923111736997
aF-0.05150386678080752
aa(lp261
F-1.1446923111736997
aF0.05150386678080752
aasg12
((lp262
F0.0
aF0.0
aF1.1458503984175077
tp263
sbsg15
F2.2893846223473995
sg16
(imodels.pose
Pose
p264
(dp265
g19
F1.861032713486405
sg20
F-1.9336001055308512
sg21
F1.816468343327891
sbsg22
(imodels.polygon
Polygon
p266
(dp267
g6
(lp268
(lp269
F-2.2619561000595967
aF2.9588284487717083
aa(lp270
F-2.16204126598646
aF2.983880776121442
aa(lp271
F-1.6052441110021056
aF0.7632369782011017
aa(lp272
F-1.7051589450752425
aF0.7381846508513681
aasg12
((lp273
F-1.933600105530851
aF1.8610327134864049
aF1.145850398417508
tp274
sbsg32
F0.10300773356161504
sba(imodels.rectangle_obstacle
RectangleObstacle
p275
(dp276
g3
(imodels.polygon
Polygon
p277
(dp278
g6
(lp279
(lp280
F0.22392920190109528
aF0.6954376249658341
aa(lp281
F0.22392920190109528
aF-0.6954376249658341
aa(lp282
F-0.22392920190109528
aF-0.6954376249658341
aa(lp283
F-0.22392920190109528
aF0.6954376249658341
aasg12
((lp284
F0.0
aF0.0
aF0.7306009702171095
tp285
sbsg15
F0.44785840380219055
sg16
(imodels.pose
Pose
p286
(dp287
g19
F-1.7665646139680464
sg20
F4.154859105477426
sg21
F-2.859598829312721
sbsg22
(imodels.polygon
Polygon
p288
(dp289
g6
(lp290
(lp291
F4.133294855542804
aF-2.496847272126474
aa(lp292
F3.746254228247623
aF-1.1609080842532262
aa(lp293
F4.176423355412048
aF-1.0362819558096188
aa(lp294
F4.563463982707229
aF-2.3722211436828666
aasg12
((lp295
F4.154859105477426
aF-1.7665646139680464
aF0.7306009702171095
tp296
sbsg32
F1.3908752499316681
sba(imodels.rectangle_obstacle
RectangleObstacle
p297
(dp298
g3
(imodels.polygon
Polygon
p299
(dp300
g6
(lp301
(lp302
F0.5755346840660135
aF0.3141044598946405
aa(lp303
F0.5755346840660135
aF-0.3141044598946405
aa(lp304
F-0.5755346840660135
aF-0.3141044598946405
aa(lp305
F-0.5755346840660135
aF0.3141044598946405
aasg12
((lp306
F0.0
aF0.0
aF0.6556689593755906
tp307
sbsg15
F1.151069368132027
sg16
(imodels.pose
Pose
p308
(dp309
g19
F-2.5364936587491043
sg20
F-5.417022112884782
sg21
F1.0390009141716554
sbsg22
(imodels.polygon
Polygon
p310
(dp311
g6
(lp312
(lp313
F-5.395905070918066
aF-1.8811648444678721
aa(lp314
F-4.85445303460025
aF-2.1997180413912525
aa(lp315
F-5.4381391548514975
aF-3.1918224730303364
aa(lp316
F-5.979591191169313
aF-2.873269276106956
aasg12
((lp317
F-5.417022112884782
aF-2.5364936587491043
aF0.6556689593755904
tp318
sbsg32
F0.628208919789281
sba(imodels.rectangle_obstacle
RectangleObstacle
p319
(dp320
g3
(imodels.polygon
Polygon
p321
(dp322
g6
(lp323
(lp324
F0.3697606655970185
aF0.1985382123464562
aa(lp325
F0.3697606655970185
aF-0.1985382123464562
aa(lp326
F-0.3697606655970185
aF-0.1985382123464562
aa(lp327
F-0.3697606655970185
aF0.1985382123464562
aasg12
((lp328
F0.0
aF0.0
aF0.4196908047413913
tp329
sbsg15
F0.739521331194037
sg16
(imodels.pose
Pose
p330
(dp331
g19
F2.4471015668267504
sg20
F0.44020936684432643
sg21
F-0.059000605608852556
sbsg22
(imodels.polygon
Polygon
p332
(dp333
g6
(lp334
(lp335
F0.8210337172739384
aF2.623490868385379
aa(lp336
F0.7976195576568554
aF2.2271053689327225
aa(lp337
F0.0593850164147145
aF2.2707122652681218
aa(lp338
F0.08279917603179743
aF2.6670977647207783
aasg12
((lp339
F0.44020936684432643
aF2.4471015668267504
aF0.41969080474139137
tp340
sbsg32
F0.3970764246929124
sba(imodels.rectangle_obstacle
RectangleObstacle
p341
(dp342
g3
(imodels.polygon
Polygon
p343
(dp344
g6
(lp345
(lp346
F0.6805822148920554
aF0.22656992274714116
aa(lp347
F0.6805822148920554
aF-0.22656992274714116
aa(lp348
F-0.6805822148920554
aF-0.22656992274714116
aa(lp349
F-0.6805822148920554
aF0.22656992274714116
aasg12
((lp350
F0.0
aF0.0
aF0.7173047337924248
tp351
sbsg15
F1.3611644297841108
sg16
(imodels.pose
Pose
p352
(dp353
g19
F4.261643878050791
sg20
F-3.8081642683548895
sg21
F-1.4470038452380045
sbsg22
(imodels.polygon
Polygon
p354
(dp355
g6
(lp356
(lp357
F-3.499292232982321
aF3.6142458962144026
aa(lp358
F-3.948964421672101
aF3.5582937533284933
aa(lp359
F-4.117036303727458
aF4.909041859887179
aa(lp360
F-3.667364115037678
aF4.9649940027730874
aasg12
((lp361
F-3.8081642683548895
aF4.261643878050791
aF0.7173047337924248
tp362
sbsg32
F0.4531398454942823
sba(imodels.rectangle_obstacle
RectangleObstacle
p363
(dp364
g3
(imodels.polygon
Polygon
p365
(dp366
g6
(lp367
(lp368
F0.8354729116633337
aF0.3622736334278549
aa(lp369
F0.8354729116633337
aF-0.3622736334278549
aa(lp370
F-0.8354729116633337
aF-0.3622736334278549
aa(lp371
F-0.8354729116633337
aF0.3622736334278549
aasg12
((lp372
F0.0
aF0.0
aF0.9106355866098296
tp373
sbsg15
F1.6709458233266674
sg16
(imodels.pose
Pose
p374
(dp375
g19
F2.2546090390338978
sg20
F-0.31589906022269
sg21
F2.4570054209367473
sbsg22
(imodels.polygon
Polygon
p376
(dp377
g6
(lp378
(lp379
F-1.1922082508562075
aF2.5022769093995505
aa(lp380
F-0.7340383936734416
aF3.063569278737673
aa(lp381
F0.5604101304108275
aF2.006941168668245
aa(lp382
F0.10224027322806162
aF1.4456487993301226
aasg12
((lp383
F-0.31589906022269
aF2.2546090390338978
aF0.9106355866098297
tp384
sbsg32
F0.7245472668557098
sba(imodels.rectangle_obstacle
RectangleObstacle
p385
(dp386
g3
(imodels.polygon
Polygon
p387
(dp388
g6
(lp389
(lp390
F1.0746533912971148
aF0.14720752189134148
aa(lp391
F1.0746533912971148
aF-0.14720752189134148
aa(lp392
F-1.0746533912971148
aF-0.14720752189134148
aa(lp393
F-1.0746533912971148
aF0.14720752189134148
aasg12
((lp394
F0.0
aF0.0
aF1.0846888797843275
tp395
sbsg15
F2.1493067825942296
sg16
(imodels.pose
Pose
p396
(dp397
g19
F-0.31371701216830233
sg20
F0.5954836184853837
sg21
F-2.7377403955272883
sbsg22
(imodels.polygon
Polygon
p398
(dp399
g6
(lp400
(lp401
F-0.33487103237120064
aF-0.8713819559807161
aa(lp402
F-0.45056543043561625
aF-0.6006514178767342
aa(lp403
F1.525838269341968
aF0.2439479316441115
aa(lp404
F1.6415326674063837
aF-0.02678260645987046
aasg12
((lp405
F0.5954836184853838
aF-0.3137170121683023
aF1.0846888797843277
tp406
sbsg32
F0.29441504378268296
sba(imodels.rectangle_obstacle
RectangleObstacle
p407
(dp408
g3
(imodels.polygon
Polygon
p409
(dp410
g6
(lp411
(lp412
F0.07678791986649273
aF0.13585271547110564
aa(lp413
F0.07678791986649273
aF-0.13585271547110564
aa(lp414
F-0.07678791986649273
aF-0.13585271547110564
aa(lp415
F-0.07678791986649273
aF0.13585271547110564
aasg12
((lp416
F0.0
aF0.0
aF0.1560523788293408
tp417
sbsg15
F0.15357583973298547
sg16
(imodels.pose
Pose
p418
(dp419
g19
F0.33889873025995654
sg20
F3.6360396355808535
sg21
F0.3553177654080164
sbsg22
(imodels.polygon
Polygon
p420
(dp421
g6
(lp422
(lp423
F3.660769503857569
aF0.49297915910577844
aa(lp424
F3.755292644138879
aF0.23824553911255386
aa(lp425
F3.611309767304138
aF0.18481830141413463
aa(lp426
F3.516786627022828
aF0.4395519214073592
aasg12
((lp427
F3.6360396355808535
aF0.33889873025995654
aF0.1560523788293408
tp428
sbsg32
F0.2717054309422113
sba(imodels.rectangle_obstacle
RectangleObstacle
p429
(dp430
g3
(imodels.polygon
Polygon
p431
(dp432
g6
(lp433
(lp434
F0.2453514368751566
aF0.14559928461683222
aa(lp435
F0.2453514368751566
aF-0.14559928461683222
aa(lp436
F-0.2453514368751566
aF-0.14559928461683222
aa(lp437
F-0.2453514368751566
aF0.14559928461683222
aasg12
((lp438
F0.0
aF0.0
aF0.28530068218922516
tp439
sbsg15
F0.4907028737503132
sg16
(imodels.pose
Pose
p440
(dp441
g19
F2.191158989683664
sg20
F2.149753319116809
sg21
F2.212699057406664
sbsg22
(imodels.polygon
Polygon
p442
(dp443
g6
(lp444
(lp445
F1.88623746393865
aF2.3005019059030554
aa(lp446
F2.1194752888873296
aF2.4748484680628593
aa(lp447
F2.413269174294968
aF2.0818160734642728
aa(lp448
F2.1800313493462884
aF1.9074695113044686
aasg12
((lp449
F2.149753319116809
aF2.191158989683664
aF0.28530068218922516
tp450
sbsg32
F0.29119856923366444
sba(imodels.rectangle_obstacle
RectangleObstacle
p451
(dp452
g3
(imodels.polygon
Polygon
p453
(dp454
g6
(lp455
(lp456
F0.3992478073023308
aF0.5328475452798869
aa(lp457
F0.3992478073023308
aF-0.5328475452798869
aa(lp458
F-0.3992478073023308
aF-0.5328475452798869
aa(lp459
F-0.3992478073023308
aF0.5328475452798869
aasg12
((lp460
F0.0
aF0.0
aF0.6658267929022683
tp461
sbsg15
F0.7984956146046616
sg16
(imodels.pose
Pose
p462
(dp463
g19
F-4.197746853586239
sg20
F3.7096020262916714
sg21
F-0.4241045347989907
sbsg22
(imodels.polygon
Polygon
p464
(dp465
g6
(lp466
(lp467
F4.292748836291646
aF-3.8763979526493078
aa(lp468
F3.8542101772729667
aF-4.847680543139481
aa(lp469
F3.1264552162916965
aF-4.519095754523169
aa(lp470
F3.564993875310376
aF-3.5478131640329957
aasg12
((lp471
F3.709602026291672
aF-4.197746853586239
aF0.6658267929022686
tp472
sbsg32
F1.0656950905597737
sba(imodels.rectangle_obstacle
RectangleObstacle
p473
(dp474
g3
(imodels.polygon
Polygon
p475
(dp476
g6
(lp477
(lp478
F0.07780388701007275
aF0.7966985437934118
aa(lp479
F0.07780388701007275
aF-0.7966985437934118
aa(lp480
F-0.07780388701007275
aF-0.7966985437934118
aa(lp481
F-0.07780388701007275
aF0.7966985437934118
aasg12
((lp482
F0.0
aF0.0
aF0.8004886098605145
tp483
sbsg15
F0.1556077740201455
sg16
(imodels.pose
Pose
p484
(dp485
g19
F0.8407318288577124
sg20
F1.5595618068970005
sg21
F-2.5812339864725677
sbsg22
(imodels.polygon
Polygon
p486
(dp487
g6
(lp488
(lp489
F1.9170942392560253
aF0.12452475382434025
aa(lp490
F1.0702195474063765
aF1.4742349208730787
aa(lp491
F1.2020293745379758
aF1.5569389038910844
aa(lp492
F2.0489040663876246
aF0.2072287368423461
aasg12
((lp493
F1.5595618068970005
aF0.8407318288577124
aF0.8004886098605144
tp494
sbsg32
F1.5933970875868235
sba(imodels.rectangle_obstacle
RectangleObstacle
p495
(dp496
g3
(imodels.polygon
Polygon
p497
(dp498
g6
(lp499
(lp500
F0.6087401398317532
aF0.6853495577770689
aa(lp501
F0.6087401398317532
aF-0.6853495577770689
aa(lp502
F-0.6087401398317532
aF-0.6853495577770689
aa(lp503
F-0.6087401398317532
aF0.6853495577770689
aasg12
((lp504
F0.0
aF0.0
aF0.9166616465128267
tp505
sbsg15
F1.2174802796635065
sg16
(imodels.pose
Pose
p506
(dp507
g19
F1.242890337290983
sg20
F-1.8129584401158207
sg21
F-0.6002253858459508
sbsg22
(imodels.polygon
Polygon
p508
(dp509
g6
(lp510
(lp511
F-0.9235160573629401
aF1.464612735687005
aa(lp512
F-1.697725952621517
aF0.3335004055161247
aa(lp513
F-2.7024008228687015
aF1.021167938894961
aa(lp514
F-1.9281909276101246
aF2.1522802690658414
aasg12
((lp515
F-1.8129584401158207
aF1.242890337290983
aF0.9166616465128267
tp516
sbsg32
F1.3706991155541377
sba(imodels.rectangle_obstacle
RectangleObstacle
p517
(dp518
g3
(imodels.polygon
Polygon
p519
(dp520
g6
(lp521
(lp522
F0.06261600966025252
aF0.12676459699124693
aa(lp523
F0.06261600966025252
aF-0.12676459699124693
aa(lp524
F-0.06261600966025252
aF-0.12676459699124693
aa(lp525
F-0.06261600966025252
aF0.12676459699124693
aasg12
((lp526
F0.0
aF0.0
aF0.14138609449350414
tp527
sbsg15
F0.12523201932050504
sg16
(imodels.pose
Pose
p528
(dp529
g19
F0.8665658651022039
sg20
F-0.4250686260404186
sg21
F0.545619125092204
sbsg22
(imodels.polygon
Polygon
p530
(dp531
g6
(lp532
(lp533
F-0.4373282359828232
aF1.0074194404213492
aa(lp534
F-0.3057599143956869
aF0.7907011233455726
aa(lp535
F-0.412809016098014
aF0.7257122897830585
aa(lp536
F-0.5443773376851503
aF0.9424306068588352
aasg12
((lp537
F-0.4250686260404186
aF0.8665658651022039
aF0.1413860944935042
tp538
sbsg32
F0.25352919398249385
sba(imodels.rectangle_obstacle
RectangleObstacle
p539
(dp540
g3
(imodels.polygon
Polygon
p541
(dp542
g6
(lp543
(lp544
F0.7216269945242267
aF0.22703768755578435
aa(lp545
F0.7216269945242267
aF-0.22703768755578435
aa(lp546
F-0.7216269945242267
aF-0.22703768755578435
aa(lp547
F-0.7216269945242267
aF0.22703768755578435
aasg12
((lp548
F0.0
aF0.0
aF0.7564995907445994
tp549
sbsg15
F1.4432539890484535
sg16
(imodels.pose
Pose
p550
(dp551
g19
F-0.36823528587489746
sg20
F0.32160522690949556
sg21
F0.03814317726082628
sbsg22
(imodels.polygon
Polygon
p552
(dp553
g6
(lp554
(lp555
F1.034049497787379
aF-0.11384426462998931
aa(lp556
F1.0513651758282134
aF-0.5675893622086827
aa(lp557
F-0.390839043968388
aF-0.6226263071198056
aa(lp558
F-0.4081547220092223
aF-0.16888120954111216
aasg12
((lp559
F0.3216052269094956
aF-0.36823528587489746
aF0.7564995907445995
tp560
sbsg32
F0.4540753751115687
sba(imodels.rectangle_obstacle
RectangleObstacle
p561
(dp562
g3
(imodels.polygon
Polygon
p563
(dp564
g6
(lp565
(lp566
F0.2744071480774808
aF0.7740164132636065
aa(lp567
F0.2744071480774808
aF-0.7740164132636065
aa(lp568
F-0.2744071480774808
aF-0.7740164132636065
aa(lp569
F-0.2744071480774808
aF0.7740164132636065
aasg12
((lp570
F0.0
aF0.0
aF0.8212190273717935
tp571
sbsg15
F0.5488142961549616
sg16
(imodels.pose
Pose
p572
(dp573
g19
F2.088805063637794
sg20
F1.513636209327093
sg21
F-1.8129828101499565
sbsg22
(imodels.polygon
Polygon
p574
(dp575
g6
(lp576
(lp577
F2.199253732863586
aF1.636777075193316
aa(lp578
F0.6963988192771827
aF2.0080353959284034
aa(lp579
F0.8280186857906001
aF2.540833052082272
aa(lp580
F2.330873599377003
aF2.1695747313471845
aasg12
((lp581
F1.513636209327093
aF2.088805063637794
aF0.8212190273717936
tp582
sbsg32
F1.548032826527213
sba(imodels.rectangle_obstacle
RectangleObstacle
p583
(dp584
g3
(imodels.polygon
Polygon
p585
(dp586
g6
(lp587
(lp588
F0.4663181745786981
aF0.40859585790238834
aa(lp589
F0.4663181745786981
aF-0.40859585790238834
aa(lp590
F-0.4663181745786981
aF-0.40859585790238834
aa(lp591
F-0.4663181745786981
aF0.40859585790238834
aasg12
((lp592
F0.0
aF0.0
aF0.6200025927666738
tp593
sbsg15
F0.9326363491573962
sg16
(imodels.pose
Pose
p594
(dp595
g19
F1.2167463096647766
sg20
F4.06510873616605
sg21
F2.035394209325103
sbsg22
(imodels.polygon
Polygon
p596
(dp597
g6
(lp598
(lp599
F3.4908832181949827
aF1.4505587762876173
aa(lp600
F4.221454092859001
aF1.8167124291064929
aa(lp601
F4.639334254137118
aF0.9829338430419359
aa(lp602
F3.908763379473099
aF0.6167801902230603
aasg12
((lp603
F4.06510873616605
aF1.2167463096647766
aF0.6200025927666741
tp604
sbsg32
F0.8171917158047767
sba(imodels.rectangle_obstacle
RectangleObstacle
p605
(dp606
g3
(imodels.polygon
Polygon
p607
(dp608
g6
(lp609
(lp610
F0.732273083941544
aF0.11144595709812308
aa(lp611
F0.732273083941544
aF-0.11144595709812308
aa(lp612
F-0.732273083941544
aF-0.11144595709812308
aa(lp613
F-0.732273083941544
aF0.11144595709812308
aasg12
((lp614
F0.0
aF0.0
aF0.7407051173164503
tp615
sbsg15
F1.464546167883088
sg16
(imodels.pose
Pose
p616
(dp617
g19
F5.844701900613685
sg20
F-0.44027803797242154
sg21
F2.0392011605768117
sbsg22
(imodels.polygon
Polygon
p618
(dp619
g6
(lp620
(lp621
F-0.8703146813793068
aF6.447787761951949
aa(lp622
F-0.6714305483252275
aF6.548415327923674
aa(lp623
F-0.010241394565536244
aF5.241616039275421
aa(lp624
F-0.2091255276196156
aF5.140988473303695
aasg12
((lp625
F-0.4402780379724215
aF5.844701900613684
aF0.740705117316451
tp626
sbsg32
F0.22289191419624615
sba(imodels.rectangle_obstacle
RectangleObstacle
p627
(dp628
g3
(imodels.polygon
Polygon
p629
(dp630
g6
(lp631
(lp632
F0.9361499603439245
aF0.20018280044815456
aa(lp633
F0.9361499603439245
aF-0.20018280044815456
aa(lp634
F-0.9361499603439245
aF-0.20018280044815456
aa(lp635
F-0.9361499603439245
aF0.20018280044815456
aasg12
((lp636
F0.0
aF0.0
aF0.9573138993283222
tp637
sbsg15
F1.872299920687849
sg16
(imodels.pose
Pose
p638
(dp639
g19
F1.473539265406828
sg20
F5.259700607549698
sg21
F-2.222871835758183
sbsg22
(imodels.polygon
Polygon
p640
(dp641
g6
(lp642
(lp643
F4.850720315765535
aF0.6079845168326328
aa(lp644
F4.532499320669284
aF0.8509413291697518
aa(lp645
F5.668680899333861
aF2.3390940139810232
aa(lp646
F5.986901894430113
aF2.096137201643904
aasg12
((lp647
F5.259700607549698
aF1.473539265406828
aF0.9573138993283223
tp648
sbsg32
F0.4003656008963091
sba(imodels.rectangle_obstacle
RectangleObstacle
p649
(dp650
g3
(imodels.polygon
Polygon
p651
(dp652
g6
(lp653
(lp654
F1.0292826701349933
aF0.17012627020359816
aa(lp655
F1.0292826701349933
aF-0.17012627020359816
aa(lp656
F-1.0292826701349933
aF-0.17012627020359816
aa(lp657
F-1.0292826701349933
aF0.17012627020359816
aasg12
((lp658
F0.0
aF0.0
aF1.0432476996637037
tp659
sbsg15
F2.0585653402699866
sg16
(imodels.pose
Pose
p660
(dp661
g19
F0.9246073718258617
sg20
F-4.228526108175079
sg21
F2.8237032023874953
sbsg22
(imodels.polygon
Polygon
p662
(dp663
g6
(lp664
(lp665
F-5.259413930879509
aF1.0847200192130364
aa(lp666
F-5.153063761928575
aF1.4079249585590474
aa(lp667
F-3.1976382854706493
aF0.7644947244386869
aa(lp668
F-3.3039884544215834
aF0.441289785092676
aasg12
((lp669
F-4.228526108175079
aF0.9246073718258617
aF1.043247699663704
tp670
sbsg32
F0.3402525404071963
sba(imodels.rectangle_obstacle
RectangleObstacle
p671
(dp672
g3
(imodels.polygon
Polygon
p673
(dp674
g6
(lp675
(lp676
F0.946526903173351
aF0.34355733429705926
aa(lp677
F0.946526903173351
aF-0.34355733429705926
aa(lp678
F-0.946526903173351
aF-0.34355733429705926
aa(lp679
F-0.946526903173351
aF0.34355733429705926
aasg12
((lp680
F0.0
aF0.0
aF1.0069482709554824
tp681
sbsg15
F1.893053806346702
sg16
(imodels.pose
Pose
p682
(dp683
g19
F-0.8179963447543208
sg20
F-0.670617639352098
sg21
F-1.0180797151510395
sbsg22
(imodels.polygon
Polygon
p684
(dp685
g6
(lp686
(lp687
F0.1187123339000189
aF-1.4432187161599255
aa(lp688
F-0.4660919498407767
aF-1.803954793528991
aa(lp689
F-1.4599476126042148
aF-0.19277397334871604
aa(lp690
F-0.8751433288634192
aF0.1679621040203495
aasg12
((lp691
F-0.670617639352098
aF-0.8179963447543208
aF1.0069482709554824
tp692
sbsg32
F0.6871146685941185
sba(imodels.rectangle_obstacle
RectangleObstacle
p693
(dp694
g3
(imodels.polygon
Polygon
p695
(dp696
g6
(lp697
(lp698
F0.6745345643779945
aF0.17721030847376085
aa(lp699
F0.6745345643779945
aF-0.17721030847376085
aa(lp700
F-0.6745345643779945
aF-0.17721030847376085
aa(lp701
F-0.6745345643779945
aF0.17721030847376085
aasg12
((lp702
F0.0
aF0.0
aF0.6974240976407227
tp703
sbsg15
F1.349069128755989
sg16
(imodels.pose
Pose
p704
(dp705
g19
F0.18196415523731138
sg20
F4.59869965286209
sg21
F-1.000481451914132
sbsg22
(imodels.polygon
Polygon
p706
(dp707
g6
(lp708
(lp709
F5.1120423315877765
aF-0.2901371751661441
aa(lp710
F4.8137155052910705
aF-0.4814878439112442
aa(lp711
F4.085356974136403
aF0.6540654856407668
aa(lp712
F4.383683800433109
aF0.8454161543858669
aasg12
((lp713
F4.59869965286209
aF0.18196415523731135
aF0.6974240976407228
tp714
sbsg32
F0.3544206169475217
sba(imodels.rectangle_obstacle
RectangleObstacle
p715
(dp716
g3
(imodels.polygon
Polygon
p717
(dp718
g6
(lp719
(lp720
F0.5394076830260239
aF0.3618158215562698
aa(lp721
F0.5394076830260239
aF-0.3618158215562698
aa(lp722
F-0.5394076830260239
aF-0.3618158215562698
aa(lp723
F-0.5394076830260239
aF0.3618158215562698
aasg12
((lp724
F0.0
aF0.0
aF0.6495162332351224
tp725
sbsg15
F1.0788153660520479
sg16
(imodels.pose
Pose
p726
(dp727
g19
F1.1191532020232982
sg20
F0.0887466629626339
sg21
F-2.883247541869231
sbsg22
(imodels.polygon
Polygon
p728
(dp729
g6
(lp730
(lp731
F-0.34032324380360796
aF0.6315361880219916
aa(lp732
F-0.5251973312403567
aF1.3311534596128116
aa(lp733
F0.5178165697288757
aF1.6067702160246047
aa(lp734
F0.7026906571656245
aF0.9071529444337847
aasg12
((lp735
F0.08874666296263387
aF1.1191532020232982
aF0.6495162332351223
tp736
sbsg32
F0.7236316431125396
sba(imodels.rectangle_obstacle
RectangleObstacle
p737
(dp738
g3
(imodels.polygon
Polygon
p739
(dp740
g6
(lp741
(lp742
F0.7836640130859847
aF0.29247652358689735
aa(lp743
F0.7836640130859847
aF-0.29247652358689735
aa(lp744
F-0.7836640130859847
aF-0.29247652358689735
aa(lp745
F-0.7836640130859847
aF0.29247652358689735
aasg12
((lp746
F0.0
aF0.0
aF0.836463867872072
tp747
sbsg15
F1.5673280261719693
sg16
(imodels.pose
Pose
p748
(dp749
g19
F-1.0651406011085471
sg20
F-0.40218212403809217
sg21
F1.479604307266909
sbsg22
(imodels.polygon
Polygon
p750
(dp751
g6
(lp752
(lp753
F-0.6220784786745498
aF-0.25809822584371356
aa(lp754
F-0.03955597665053234
aF-0.31136737295145556
aa(lp755
F-0.18228576940163455
aF-1.8721829763733808
aa(lp756
F-0.764808271425652
aF-1.8189138292656386
aasg12
((lp757
F-0.40218212403809217
aF-1.0651406011085471
aF0.8364638678720722
tp758
sbsg32
F0.5849530471737947
sba(imodels.rectangle_obstacle
RectangleObstacle
p759
(dp760
g3
(imodels.polygon
Polygon
p761
(dp762
g6
(lp763
(lp764
F0.7306851171430434
aF0.06056208070438096
aa(lp765
F0.7306851171430434
aF-0.06056208070438096
aa(lp766
F-0.7306851171430434
aF-0.06056208070438096
aa(lp767
F-0.7306851171430434
aF0.06056208070438096
aasg12
((lp768
F0.0
aF0.0
aF0.7331906341693046
tp769
sbsg15
F1.4613702342860868
sg16
(imodels.pose
Pose
p770
(dp771
g19
F-1.813370085832
sg20
F1.8669596583273187
sg21
F1.8806508120959355
sbsg22
(imodels.polygon
Polygon
p772
(dp773
g6
(lp774
(lp775
F1.5864811221648623
aF-1.1359482845990072
aa(lp776
F1.7018371027413979
aF-1.099015098679001
aa(lp777
F2.147438194489775
aF-2.4907918870649928
aa(lp778
F2.0320822139132395
aF-2.527725072984999
aasg12
((lp779
F1.866959658327319
aF-1.813370085832
aF0.7331906341693046
tp780
sbsg32
F0.12112416140876192
sba(imodels.rectangle_obstacle
RectangleObstacle
p781
(dp782
g3
(imodels.polygon
Polygon
p783
(dp784
g6
(lp785
(lp786
F0.7207177585726773
aF0.35329090610569974
aa(lp787
F0.7207177585726773
aF-0.35329090610569974
aa(lp788
F-0.7207177585726773
aF-0.35329090610569974
aa(lp789
F-0.7207177585726773
aF0.35329090610569974
aasg12
((lp790
F0.0
aF0.0
aF0.8026509526930186
tp791
sbsg15
F1.4414355171453546
sg16
(imodels.pose
Pose
p792
(dp793
g19
F-0.554319871487053
sg20
F-3.586381410305974
sg21
F1.5614115198098268
sbsg22
(imodels.polygon
Polygon
p794
(dp795
g6
(lp796
(lp797
F-3.932893060778965
aF0.16968166714770294
aa(lp798
F-3.2263423642951863
aF0.1630506305595899
aa(lp799
F-3.239869759832983
aF-1.278321410121809
aa(lp800
F-3.9464204563167615
aF-1.271690373533696
aasg12
((lp801
F-3.586381410305974
aF-0.554319871487053
aF0.8026509526930188
tp802
sbsg32
F0.7065818122113995
sba(imodels.rectangle_obstacle
RectangleObstacle
p803
(dp804
g3
(imodels.polygon
Polygon
p805
(dp806
g6
(lp807
(lp808
F0.42959758379841584
aF0.8480667773465987
aa(lp809
F0.42959758379841584
aF-0.8480667773465987
aa(lp810
F-0.42959758379841584
aF-0.8480667773465987
aa(lp811
F-0.42959758379841584
aF0.8480667773465987
aasg12
((lp812
F0.0
aF0.0
aF0.9506688923302805
tp813
sbsg15
F0.8591951675968317
sg16
(imodels.pose
Pose
p814
(dp815
g19
F-2.2198815669023992
sg20
F-2.6880318466553565
sg21
F0.3407025010722613
sbsg22
(imodels.polygon
Polygon
p816
(dp817
g6
(lp818
(lp819
F-2.5665083807269236
aF-1.2770118038527916
aa(lp820
F-1.999746547571171
aF-2.8756518696068416
aa(lp821
F-2.8095553125837895
aF-3.162751329952007
aa(lp822
F-3.376317145739542
aF-1.5641112641979569
aasg12
((lp823
F-2.6880318466553565
aF-2.2198815669023992
aF0.9506688923302806
tp824
sbsg32
F1.6961335546931975
sba(imodels.rectangle_obstacle
RectangleObstacle
p825
(dp826
g3
(imodels.polygon
Polygon
p827
(dp828
g6
(lp829
(lp830
F0.9977934557319557
aF0.2811636530009344
aa(lp831
F0.9977934557319557
aF-0.2811636530009344
aa(lp832
F-0.9977934557319557
aF-0.2811636530009344
aa(lp833
F-0.9977934557319557
aF0.2811636530009344
aasg12
((lp834
F0.0
aF0.0
aF1.0366507512515235
tp835
sbsg15
F1.9955869114639113
sg16
(imodels.pose
Pose
p836
(dp837
g19
F-0.06701614840954254
sg20
F-3.792872201650153
sg21
F-1.2138142854591987
sbsg22
(imodels.polygon
Polygon
p838
(dp839
g6
(lp840
(lp841
F-3.180757249212438
aF-0.903652308919308
aa(lp842
F-3.7076330289159363
aF-1.1001565374670679
aa(lp843
F-4.404987154087868
aF0.769620012100223
aa(lp844
F-3.87811137438437
aF0.9661242406479827
aasg12
((lp845
F-3.792872201650153
aF-0.06701614840954254
aF1.0366507512515235
tp846
sbsg32
F0.5623273060018688
sba(imodels.rectangle_obstacle
RectangleObstacle
p847
(dp848
g3
(imodels.polygon
Polygon
p849
(dp850
g6
(lp851
(lp852
F0.9411577058167085
aF0.27152646095098726
aa(lp853
F0.9411577058167085
aF-0.27152646095098726
aa(lp854
F-0.9411577058167085
aF-0.27152646095098726
aa(lp855
F-0.9411577058167085
aF0.27152646095098726
aasg12
((lp856
F0.0
aF0.0
aF0.979542978237677
tp857
sbsg15
F1.882315411633417
sg16
(imodels.pose
Pose
p858
(dp859
g19
F2.1722856518792852
sg20
F3.2049414926336155
sg21
F-0.9427206606532628
sbsg22
(imodels.polygon
Polygon
p860
(dp861
g6
(lp862
(lp863
F3.9776634515950633
aF1.5702846382974802
aa(lp864
F3.5382468998808165
aF1.2511928488922486
aa(lp865
F2.4322195336721677
aF2.7742866654610903
aa(lp866
F2.8716360853864145
aF3.093378454866322
aasg12
((lp867
F3.2049414926336155
aF2.1722856518792852
aF0.9795429782376771
tp868
sbsg32
F0.5430529219019745
sba(imodels.rectangle_obstacle
RectangleObstacle
p869
(dp870
g3
(imodels.polygon
Polygon
p871
(dp872
g6
(lp873
(lp874
F0.22433741238608912
aF0.41181703097012906
aa(lp875
F0.22433741238608912
aF-0.41181703097012906
aa(lp876
F-0.22433741238608912
aF-0.41181703097012906
aa(lp877
F-0.22433741238608912
aF0.41181703097012906
aasg12
((lp878
F0.0
aF0.0
aF0.468956865386507
tp879
sbsg15
F0.44867482477217824
sg16
(imodels.pose
Pose
p880
(dp881
g19
F-1.9879507785372135
sg20
F-3.3285238017554937
sg21
F-1.8652649246735349
sbsg22
(imodels.polygon
Polygon
p882
(dp883
g6
(lp884
(lp885
F-2.9995425671145353
aF-2.322154143043391
aa(lp886
F-3.7877245420685512
aF-2.0831097071202858
aa(lp887
F-3.657505036396452
aF-1.6537474140310358
aa(lp888
F-2.869323061442436
aF-1.8927918499541414
aasg12
((lp889
F-3.3285238017554937
aF-1.9879507785372135
aF0.46895686538650694
tp890
sbsg32
F0.8236340619402581
sba(imodels.circular_obstacle
CircularObstacle
p891
(dp892
g22
(imodels.polygon
Polygon
p893
(dp894
g6
(lp895
(lp896
F1.5078500000000004
aF1.001984
aa(lp897
F1.500261556839549
aF1.0887645202269034
aa(lp898
F1.4777265652365923
aF1.1729109242731017
aa(lp899
F1.4409290472027318
aF1.2518690513215511
aa(lp900
F1.3909859462341498
aF1.3232422243356003
aa(lp901
F1.3294132238626732
aF1.3848639982488566
aa(lp902
F1.258079844504103
aF1.4348639197461721
aa(lp903
F1.1791510453372611
aF1.4717243025783096
aa(lp904
F1.0950226131869485
aF1.4943262950652916
aa(lp905
F1.0082481633553668
aF1.5019838414659172
aa(lp906
F0.9214616277638223
aF1.4944645063577475
aa(lp907
F0.8372973051820304
aF1.4719965299290738
aa(lp908
F0.7583099003221903
aF1.4352619000281328
aa(lp909
F0.686896978912984
aF1.385375651259019
aa(lp910
F0.6252261925345536
aF1.3238520194748225
aa(lp911
F0.5751694822152713
aF1.252558479006819
aa(lp912
F0.5382462579593654
aF1.1736590577732038
aa(lp913
F0.5155772789211022
aF1.0895486508676717
aa(lp914
F0.5078506341362305
aF1.002780326458243
aa(lp915
F0.5153008564238348
aF0.9159878305365527
aa(lp916
F0.5377018034304661
aF0.8318056427908218
aa(lp917
F0.5743735219037239
aF0.7527890102083744
aa(lp918
F0.6242028868386867
aF0.6813363856895389
aa(lp919
F0.685677389021233
aF0.6196166259536205
aa(lp920
F0.756931045388846
aF0.56950315855515
aa(lp921
F0.8358010386562451
aF0.5325171162898334
aa(lp922
F0.9198933669795313
aF0.5097811650755122
aa(lp923
F1.00665551094386
aF0.501985426806141
aa(lp924
F1.0934539121574216
aF0.5093665315487234
aa(lp925
F1.1776539116841076
aF0.5317004349280575
aa(lp926
F1.2566997218818454
aF0.5683092187187634
aa(lp927
F1.3281920041996047
aF0.6180816682209644
aa(lp928
F1.389960698154269
aF0.6795070018186453
aa(lp929
F1.4401308908531574
aF0.7507207289013353
aa(lp930
F1.4771797276736915
aF0.8295612441881902
aa(lp931
F1.499982636646378
aF0.9136354406032303
aasg12
((lp932
F1.0075970718484397
aF1.0020065230347195
aF0.5002529286585914
tp933
sbsg3
(imodels.polygon
Polygon
p934
(dp935
g6
g895
sg12
((lp936
F1.0075970718484397
aF1.0020065230347195
aF0.5002529286585914
tp937
sbsg16
(imodels.pose
Pose
p938
(dp939
g19
F1.001984
sg20
F1.0078500000000004
sg21
F1.0
sbsS'radius'
p940
F0.5
sg19
F1.001984
sg20
F1.0078500000000004
sba.(lp0
F-0.45184999010816507
aF3.24217451242041
a.